   1               		.file	"fingermap.c"
   2               		.arch atmega128
   3               	__SREG__ = 0x3f
   4               	__SP_H__ = 0x3e
   5               	__SP_L__ = 0x3d
   6               	__tmp_reg__ = 0
   7               	__zero_reg__ = 1
   8               		.global __do_copy_data
   9               		.global __do_clear_bss
  17               	.Ltext0:
  18               	.global	User_clear
  20               	User_clear:
  21               	.LFB9:
  22               	.LM1:
  23               	/* prologue: frame size=18 */
  24 0000 CF93      		push r28
  25 0002 DF93      		push r29
  26 0004 CDB7      		in r28,__SP_L__
  27 0006 DEB7      		in r29,__SP_H__
  28 0008 6297      		sbiw r28,18
  29 000a 0FB6      		in __tmp_reg__,__SREG__
  30 000c F894      		cli
  31 000e DEBF      		out __SP_H__,r29
  32 0010 0FBE      		out __SREG__,__tmp_reg__
  33 0012 CDBF      		out __SP_L__,r28
  34               	/* prologue end (size=10) */
  35               	.LM2:
  36 0014 92E0      		ldi r25,lo8(2)
  37 0016 9A87      		std Y+10,r25
  38               	.LM3:
  39 0018 84E0      		ldi r24,lo8(4)
  40 001a 8B87      		std Y+11,r24
  41               	.LM4:
  42 001c 21E0      		ldi r18,lo8(1)
  43 001e 2C87      		std Y+12,r18
  44               	.LM5:
  45 0020 9D87      		std Y+13,r25
  46               	.LM6:
  47 0022 86E2      		ldi r24,lo8(38)
  48 0024 8E87      		std Y+14,r24
  49               	.LM7:
  50 0026 1F86      		std Y+15,__zero_reg__
  51               	.LM8:
  52 0028 988B      		std Y+16,r25
  53               	.LM9:
  54 002a 298B      		std Y+17,r18
  55               	.LM10:
  56 002c 83E0      		ldi r24,lo8(3)
  57 002e 8A8B      		std Y+18,r24
  58               	.LM11:
  59 0030 69E0      		ldi r22,lo8(9)
  60 0032 70E0      		ldi r23,hi8(9)
  61 0034 CE01      		movw r24,r28
  62 0036 0A96      		adiw r24,10
  63 0038 0E94 0000 		call UART1_write
  64               	.LM12:
  65 003c 1B98      		cbi 35-0x20,3
  66               	.LM13:
  67 003e 69E0      		ldi r22,lo8(9)
  68 0040 70E0      		ldi r23,hi8(9)
  69 0042 CE01      		movw r24,r28
  70 0044 0196      		adiw r24,1
  71 0046 0E94 0000 		call UART1_read
  72 004a 97FF      		sbrs r25,7
  73 004c 00C0      		rjmp .L2
  74               	.LM14:
  75 004e 23E0      		ldi r18,lo8(3)
  76               	.LVL0:
  77               	.LVL1:
  78               	.L4:
  79               	.LBB2:
  80               	.LM15:
  81 0050 8091 6200 		lds r24,98
  82               	.LVL2:
  83 0054 8860      		ori r24,lo8(8)
  84 0056 8093 6200 		sts 98,r24
  85 005a 80E5      		ldi r24,lo8(18000)
  86 005c 96E4      		ldi r25,hi8(18000)
  87               	.LVL3:
  88               	.L5:
  89               	.LBB3:
  90               	/* #APP */
  91 005e 0000      		nop
  92               		
  93 0060 0000      		nop
  94               		
  95 0062 0000      		nop
  96               		
  97 0064 0000      		nop
  98               		
  99               	/* #NOAPP */
 100 0066 0197      		sbiw r24,1
 101 0068 01F4      		brne .L5
 102               	.LBE3:
 103 006a 8091 6200 		lds r24,98
 104               	.LVL4:
 105 006e 877F      		andi r24,lo8(-9)
 106 0070 8093 6200 		sts 98,r24
 107 0074 80E5      		ldi r24,lo8(18000)
 108 0076 96E4      		ldi r25,hi8(18000)
 109               	.LVL5:
 110               	.L7:
 111               	.LBB4:
 112               	/* #APP */
 113 0078 0000      		nop
 114               		
 115 007a 0000      		nop
 116               		
 117 007c 0000      		nop
 118               		
 119 007e 0000      		nop
 120               		
 121               	/* #NOAPP */
 122 0080 0197      		sbiw r24,1
 123 0082 01F4      		brne .L7
 124               	.LBE4:
 125 0084 2150      		subi r18,lo8(-(-1))
 126 0086 01F4      		brne .+2
 127 0088 00C0      		rjmp .L9
 128 008a 00C0      		rjmp .L4
 129               	.LVL6:
 130               	.L2:
 131               	.LBE2:
 132               	.LM16:
 133 008c 9698      		cbi 50-0x20,6
 134               	.LM17:
 135 008e 8D81      		ldd r24,Y+5
 136 0090 8632      		cpi r24,lo8(38)
 137 0092 01F0      		breq .+2
 138 0094 00C0      		rjmp .L9
 139               	.LM18:
 140 0096 8E81      		ldd r24,Y+6
 141 0098 8F3F      		cpi r24,lo8(-1)
 142 009a 01F4      		brne .L11
 143               	.LM19:
 144 009c 9598      		cbi 50-0x20,5
 145 009e 21E0      		ldi r18,lo8(1)
 146               	.LVL7:
 147               	.LVL8:
 148               	.L13:
 149               	.LBB5:
 150               	.LM20:
 151 00a0 8091 6200 		lds r24,98
 152               	.LVL9:
 153 00a4 8860      		ori r24,lo8(8)
 154 00a6 8093 6200 		sts 98,r24
 155 00aa 88EA      		ldi r24,lo8(25000)
 156 00ac 91E6      		ldi r25,hi8(25000)
 157               	.LVL10:
 158               	.L14:
 159               	.LBB6:
 160               	/* #APP */
 161 00ae 0000      		nop
 162               		
 163 00b0 0000      		nop
 164               		
 165 00b2 0000      		nop
 166               		
 167 00b4 0000      		nop
 168               		
 169               	/* #NOAPP */
 170 00b6 0197      		sbiw r24,1
 171 00b8 01F4      		brne .L14
 172               	.LBE6:
 173 00ba 8091 6200 		lds r24,98
 174               	.LVL11:
 175 00be 877F      		andi r24,lo8(-9)
 176 00c0 8093 6200 		sts 98,r24
 177 00c4 88EA      		ldi r24,lo8(25000)
 178 00c6 91E6      		ldi r25,hi8(25000)
 179               	.LVL12:
 180               	.L16:
 181               	.LBB7:
 182               	/* #APP */
 183 00c8 0000      		nop
 184               		
 185 00ca 0000      		nop
 186               		
 187 00cc 0000      		nop
 188               		
 189 00ce 0000      		nop
 190               		
 191               	/* #NOAPP */
 192 00d0 0197      		sbiw r24,1
 193 00d2 01F4      		brne .L16
 194               	.LBE7:
 195 00d4 2150      		subi r18,lo8(-(-1))
 196 00d6 01F4      		brne .+2
 197 00d8 00C0      		rjmp .L9
 198 00da 00C0      		rjmp .L13
 199               	.LVL13:
 200               	.L11:
 201               	.LBE5:
 202               	.LM21:
 203 00dc 8130      		cpi r24,lo8(1)
 204 00de 01F4      		brne .L9
 205               	.LM22:
 206 00e0 9498      		cbi 50-0x20,4
 207 00e2 25E0      		ldi r18,lo8(5)
 208               	.LVL14:
 209               	.LVL15:
 210               	.L19:
 211               	.LBB8:
 212               	.LM23:
 213 00e4 8091 6200 		lds r24,98
 214               	.LVL16:
 215 00e8 8860      		ori r24,lo8(8)
 216 00ea 8093 6200 		sts 98,r24
 217 00ee 88EA      		ldi r24,lo8(25000)
 218 00f0 91E6      		ldi r25,hi8(25000)
 219               	.LVL17:
 220               	.L20:
 221               	.LBB9:
 222               	/* #APP */
 223 00f2 0000      		nop
 224               		
 225 00f4 0000      		nop
 226               		
 227 00f6 0000      		nop
 228               		
 229 00f8 0000      		nop
 230               		
 231               	/* #NOAPP */
 232 00fa 0197      		sbiw r24,1
 233 00fc 01F4      		brne .L20
 234               	.LBE9:
 235 00fe 8091 6200 		lds r24,98
 236               	.LVL18:
 237 0102 877F      		andi r24,lo8(-9)
 238 0104 8093 6200 		sts 98,r24
 239 0108 88EA      		ldi r24,lo8(25000)
 240 010a 91E6      		ldi r25,hi8(25000)
 241               	.LVL19:
 242               	.L22:
 243               	.LBB10:
 244               	/* #APP */
 245 010c 0000      		nop
 246               		
 247 010e 0000      		nop
 248               		
 249 0110 0000      		nop
 250               		
 251 0112 0000      		nop
 252               		
 253               	/* #NOAPP */
 254 0114 0197      		sbiw r24,1
 255 0116 01F4      		brne .L22
 256               	.LBE10:
 257 0118 2150      		subi r18,lo8(-(-1))
 258 011a 01F4      		brne .L19
 259 011c 80E0      		ldi r24,lo8(0)
 260 011e 90E0      		ldi r25,hi8(0)
 261               	.LVL20:
 262 0120 00C0      		rjmp .L25
 263               	.LVL21:
 264               	.L9:
 265 0122 81E0      		ldi r24,lo8(1)
 266 0124 90E0      		ldi r25,hi8(1)
 267               	.LVL22:
 268               	.L25:
 269               	.LBE8:
 270               	/* epilogue: frame size=18 */
 271 0126 6296      		adiw r28,18
 272 0128 0FB6      		in __tmp_reg__,__SREG__
 273 012a F894      		cli
 274 012c DEBF      		out __SP_H__,r29
 275 012e 0FBE      		out __SREG__,__tmp_reg__
 276 0130 CDBF      		out __SP_L__,r28
 277 0132 DF91      		pop r29
 278 0134 CF91      		pop r28
 279 0136 0895      		ret
 280               	/* epilogue end (size=9) */
 281               	/* function User_clear size 236 (217) */
 282               	.LFE9:
 284               	.global	User_erase
 286               	User_erase:
 287               	.LFB7:
 288               	.LM24:
 289               	/* prologue: frame size=18 */
 290 0138 CF93      		push r28
 291 013a DF93      		push r29
 292 013c CDB7      		in r28,__SP_L__
 293 013e DEB7      		in r29,__SP_H__
 294 0140 6297      		sbiw r28,18
 295 0142 0FB6      		in __tmp_reg__,__SREG__
 296 0144 F894      		cli
 297 0146 DEBF      		out __SP_H__,r29
 298 0148 0FBE      		out __SREG__,__tmp_reg__
 299 014a CDBF      		out __SP_L__,r28
 300               	/* prologue end (size=10) */
 301               	.LVL23:
 302               	.LM25:
 303 014c 22E0      		ldi r18,lo8(2)
 304 014e 2A87      		std Y+10,r18
 305               	.LM26:
 306 0150 94E0      		ldi r25,lo8(4)
 307 0152 9B87      		std Y+11,r25
 308               	.LM27:
 309 0154 31E0      		ldi r19,lo8(1)
 310 0156 3C87      		std Y+12,r19
 311               	.LM28:
 312 0158 2D87      		std Y+13,r18
 313               	.LM29:
 314 015a 92E2      		ldi r25,lo8(34)
 315 015c 9E87      		std Y+14,r25
 316               	.LM30:
 317 015e 8F87      		std Y+15,r24
 318               	.LM31:
 319 0160 288B      		std Y+16,r18
 320               	.LM32:
 321 0162 398B      		std Y+17,r19
 322               	.LM33:
 323 0164 83E0      		ldi r24,lo8(3)
 324               	.LVL24:
 325 0166 8A8B      		std Y+18,r24
 326               	.LM34:
 327 0168 69E0      		ldi r22,lo8(9)
 328 016a 70E0      		ldi r23,hi8(9)
 329 016c CE01      		movw r24,r28
 330 016e 0A96      		adiw r24,10
 331 0170 0E94 0000 		call UART1_write
 332               	.LM35:
 333 0174 69E0      		ldi r22,lo8(9)
 334 0176 70E0      		ldi r23,hi8(9)
 335 0178 CE01      		movw r24,r28
 336 017a 0196      		adiw r24,1
 337 017c 0E94 0000 		call UART1_read
 338 0180 97FF      		sbrs r25,7
 339 0182 00C0      		rjmp .L44
 340               	.LM36:
 341 0184 23E0      		ldi r18,lo8(3)
 342               	.LVL25:
 343               	.LVL26:
 344               	.L46:
 345               	.LBB11:
 346               	.LM37:
 347 0186 8091 6200 		lds r24,98
 348               	.LVL27:
 349 018a 8860      		ori r24,lo8(8)
 350 018c 8093 6200 		sts 98,r24
 351 0190 80E5      		ldi r24,lo8(18000)
 352 0192 96E4      		ldi r25,hi8(18000)
 353               	.LVL28:
 354               	.L47:
 355               	.LBB12:
 356               	/* #APP */
 357 0194 0000      		nop
 358               		
 359 0196 0000      		nop
 360               		
 361 0198 0000      		nop
 362               		
 363 019a 0000      		nop
 364               		
 365               	/* #NOAPP */
 366 019c 0197      		sbiw r24,1
 367 019e 01F4      		brne .L47
 368               	.LBE12:
 369 01a0 8091 6200 		lds r24,98
 370               	.LVL29:
 371 01a4 877F      		andi r24,lo8(-9)
 372 01a6 8093 6200 		sts 98,r24
 373 01aa 80E5      		ldi r24,lo8(18000)
 374 01ac 96E4      		ldi r25,hi8(18000)
 375               	.LVL30:
 376               	.L49:
 377               	.LBB13:
 378               	/* #APP */
 379 01ae 0000      		nop
 380               		
 381 01b0 0000      		nop
 382               		
 383 01b2 0000      		nop
 384               		
 385 01b4 0000      		nop
 386               		
 387               	/* #NOAPP */
 388 01b6 0197      		sbiw r24,1
 389 01b8 01F4      		brne .L49
 390               	.LBE13:
 391 01ba 2150      		subi r18,lo8(-(-1))
 392 01bc 01F0      		breq .L51
 393 01be 00C0      		rjmp .L46
 394               	.LVL31:
 395               	.L44:
 396               	.LBE11:
 397               	.LM38:
 398 01c0 8D81      		ldd r24,Y+5
 399 01c2 8232      		cpi r24,lo8(34)
 400 01c4 01F4      		brne .L51
 401               	.LM39:
 402 01c6 8E81      		ldd r24,Y+6
 403 01c8 8E3F      		cpi r24,lo8(-2)
 404 01ca 01F0      		breq .L51
 405               	.LM40:
 406 01cc 8F3F      		cpi r24,lo8(-1)
 407 01ce 01F0      		breq .L51
 408               	.LM41:
 409 01d0 8C3F      		cpi r24,lo8(-4)
 410 01d2 01F0      		breq .L51
 411               	.LM42:
 412 01d4 8150      		subi r24,lo8(-(-1))
 413 01d6 803F      		cpi r24,lo8(-16)
 414 01d8 00F4      		brsh .L56
 415 01da 80E0      		ldi r24,lo8(0)
 416 01dc 90E0      		ldi r25,hi8(0)
 417 01de 00C0      		rjmp .L43
 418               	.L56:
 419 01e0 00C0      		rjmp .L43
 420               	.LVL32:
 421               	.L51:
 422               	.LM43:
 423 01e2 81E0      		ldi r24,lo8(1)
 424 01e4 90E0      		ldi r25,hi8(1)
 425               	.LVL33:
 426               	.L43:
 427               	/* epilogue: frame size=18 */
 428 01e6 6296      		adiw r28,18
 429 01e8 0FB6      		in __tmp_reg__,__SREG__
 430 01ea F894      		cli
 431 01ec DEBF      		out __SP_H__,r29
 432 01ee 0FBE      		out __SREG__,__tmp_reg__
 433 01f0 CDBF      		out __SP_L__,r28
 434 01f2 DF91      		pop r29
 435 01f4 CF91      		pop r28
 436 01f6 0895      		ret
 437               	/* epilogue end (size=9) */
 438               	/* function User_erase size 123 (104) */
 439               	.LFE7:
 441               	.global	User_auth
 443               	User_auth:
 444               	.LFB5:
 445               	.LM44:
 446               	/* prologue: frame size=18 */
 447 01f8 CF93      		push r28
 448 01fa DF93      		push r29
 449 01fc CDB7      		in r28,__SP_L__
 450 01fe DEB7      		in r29,__SP_H__
 451 0200 6297      		sbiw r28,18
 452 0202 0FB6      		in __tmp_reg__,__SREG__
 453 0204 F894      		cli
 454 0206 DEBF      		out __SP_H__,r29
 455 0208 0FBE      		out __SREG__,__tmp_reg__
 456 020a CDBF      		out __SP_L__,r28
 457               	/* prologue end (size=10) */
 458               	.LVL34:
 459               	.LM45:
 460 020c 22E0      		ldi r18,lo8(2)
 461 020e 2A87      		std Y+10,r18
 462               	.LM46:
 463 0210 94E0      		ldi r25,lo8(4)
 464 0212 9B87      		std Y+11,r25
 465               	.LM47:
 466 0214 31E0      		ldi r19,lo8(1)
 467 0216 3C87      		std Y+12,r19
 468               	.LM48:
 469 0218 2D87      		std Y+13,r18
 470               	.LM49:
 471 021a 94E2      		ldi r25,lo8(36)
 472 021c 9E87      		std Y+14,r25
 473               	.LM50:
 474 021e 8F87      		std Y+15,r24
 475               	.LM51:
 476 0220 288B      		std Y+16,r18
 477               	.LM52:
 478 0222 398B      		std Y+17,r19
 479               	.LM53:
 480 0224 83E0      		ldi r24,lo8(3)
 481               	.LVL35:
 482 0226 8A8B      		std Y+18,r24
 483               	.LM54:
 484 0228 69E0      		ldi r22,lo8(9)
 485 022a 70E0      		ldi r23,hi8(9)
 486 022c CE01      		movw r24,r28
 487 022e 0A96      		adiw r24,10
 488 0230 0E94 0000 		call UART1_write
 489               	.LM55:
 490 0234 69E0      		ldi r22,lo8(9)
 491 0236 70E0      		ldi r23,hi8(9)
 492 0238 CE01      		movw r24,r28
 493 023a 0196      		adiw r24,1
 494 023c 0E94 0000 		call UART1_read
 495 0240 97FD      		sbrc r25,7
 496 0242 00C0      		rjmp .L66
 497               	.LM56:
 498 0244 8981      		ldd r24,Y+1
 499 0246 8230      		cpi r24,lo8(2)
 500 0248 01F0      		breq .+2
 501 024a 00C0      		rjmp .L68
 502 024c 8D81      		ldd r24,Y+5
 503 024e 8432      		cpi r24,lo8(36)
 504 0250 01F0      		breq .+2
 505 0252 00C0      		rjmp .L68
 506               	.LM57:
 507 0254 9E81      		ldd r25,Y+6
 508 0256 9F3F      		cpi r25,lo8(-1)
 509 0258 01F4      		brne .L71
 510 025a 21E0      		ldi r18,lo8(1)
 511               	.LVL36:
 512               	.LVL37:
 513               	.L73:
 514               	.LBB14:
 515               	.LM58:
 516 025c 8091 6200 		lds r24,98
 517               	.LVL38:
 518 0260 8860      		ori r24,lo8(8)
 519 0262 8093 6200 		sts 98,r24
 520 0266 80E5      		ldi r24,lo8(18000)
 521 0268 96E4      		ldi r25,hi8(18000)
 522               	.LVL39:
 523               	.L74:
 524               	.LBB15:
 525               	/* #APP */
 526 026a 0000      		nop
 527               		
 528 026c 0000      		nop
 529               		
 530 026e 0000      		nop
 531               		
 532 0270 0000      		nop
 533               		
 534               	/* #NOAPP */
 535 0272 0197      		sbiw r24,1
 536 0274 01F4      		brne .L74
 537               	.LBE15:
 538 0276 8091 6200 		lds r24,98
 539               	.LVL40:
 540 027a 877F      		andi r24,lo8(-9)
 541 027c 8093 6200 		sts 98,r24
 542 0280 80E5      		ldi r24,lo8(18000)
 543 0282 96E4      		ldi r25,hi8(18000)
 544               	.LVL41:
 545               	.L76:
 546               	.LBB16:
 547               	/* #APP */
 548 0284 0000      		nop
 549               		
 550 0286 0000      		nop
 551               		
 552 0288 0000      		nop
 553               		
 554 028a 0000      		nop
 555               		
 556               	/* #NOAPP */
 557 028c 0197      		sbiw r24,1
 558 028e 01F4      		brne .L76
 559               	.LBE16:
 560 0290 2150      		subi r18,lo8(-(-1))
 561 0292 01F4      		brne .+2
 562 0294 00C0      		rjmp .L66
 563 0296 00C0      		rjmp .L73
 564               	.LVL42:
 565               	.L71:
 566               	.LBE14:
 567               	.LM59:
 568 0298 9C3F      		cpi r25,lo8(-4)
 569 029a 01F4      		brne .L78
 570 029c 23E0      		ldi r18,lo8(3)
 571               	.LVL43:
 572               	.LVL44:
 573               	.L80:
 574               	.LBB17:
 575               	.LM60:
 576 029e 8091 6200 		lds r24,98
 577               	.LVL45:
 578 02a2 8860      		ori r24,lo8(8)
 579 02a4 8093 6200 		sts 98,r24
 580 02a8 80E5      		ldi r24,lo8(18000)
 581 02aa 96E4      		ldi r25,hi8(18000)
 582               	.LVL46:
 583               	.L81:
 584               	.LBB18:
 585               	/* #APP */
 586 02ac 0000      		nop
 587               		
 588 02ae 0000      		nop
 589               		
 590 02b0 0000      		nop
 591               		
 592 02b2 0000      		nop
 593               		
 594               	/* #NOAPP */
 595 02b4 0197      		sbiw r24,1
 596 02b6 01F4      		brne .L81
 597               	.LBE18:
 598 02b8 8091 6200 		lds r24,98
 599               	.LVL47:
 600 02bc 877F      		andi r24,lo8(-9)
 601 02be 8093 6200 		sts 98,r24
 602 02c2 80E5      		ldi r24,lo8(18000)
 603 02c4 96E4      		ldi r25,hi8(18000)
 604               	.LVL48:
 605               	.L83:
 606               	.LBB19:
 607               	/* #APP */
 608 02c6 0000      		nop
 609               		
 610 02c8 0000      		nop
 611               		
 612 02ca 0000      		nop
 613               		
 614 02cc 0000      		nop
 615               		
 616               	/* #NOAPP */
 617 02ce 0197      		sbiw r24,1
 618 02d0 01F4      		brne .L83
 619               	.LBE19:
 620 02d2 2150      		subi r18,lo8(-(-1))
 621 02d4 01F4      		brne .+2
 622 02d6 00C0      		rjmp .L66
 623 02d8 00C0      		rjmp .L80
 624               	.LVL49:
 625               	.L78:
 626               	.LBE17:
 627               	.LM61:
 628 02da 9E3F      		cpi r25,lo8(-2)
 629 02dc 01F4      		brne .L85
 630 02de 22E0      		ldi r18,lo8(2)
 631               	.LVL50:
 632               	.LVL51:
 633               	.L87:
 634               	.LBB20:
 635               	.LM62:
 636 02e0 8091 6200 		lds r24,98
 637               	.LVL52:
 638 02e4 8860      		ori r24,lo8(8)
 639 02e6 8093 6200 		sts 98,r24
 640 02ea 80E5      		ldi r24,lo8(18000)
 641 02ec 96E4      		ldi r25,hi8(18000)
 642               	.LVL53:
 643               	.L88:
 644               	.LBB21:
 645               	/* #APP */
 646 02ee 0000      		nop
 647               		
 648 02f0 0000      		nop
 649               		
 650 02f2 0000      		nop
 651               		
 652 02f4 0000      		nop
 653               		
 654               	/* #NOAPP */
 655 02f6 0197      		sbiw r24,1
 656 02f8 01F4      		brne .L88
 657               	.LBE21:
 658 02fa 8091 6200 		lds r24,98
 659               	.LVL54:
 660 02fe 877F      		andi r24,lo8(-9)
 661 0300 8093 6200 		sts 98,r24
 662 0304 80E5      		ldi r24,lo8(18000)
 663 0306 96E4      		ldi r25,hi8(18000)
 664               	.LVL55:
 665               	.L90:
 666               	.LBB22:
 667               	/* #APP */
 668 0308 0000      		nop
 669               		
 670 030a 0000      		nop
 671               		
 672 030c 0000      		nop
 673               		
 674 030e 0000      		nop
 675               		
 676               	/* #NOAPP */
 677 0310 0197      		sbiw r24,1
 678 0312 01F4      		brne .L90
 679               	.LBE22:
 680 0314 2150      		subi r18,lo8(-(-1))
 681 0316 01F4      		brne .+2
 682 0318 00C0      		rjmp .L66
 683 031a 00C0      		rjmp .L87
 684               	.LVL56:
 685               	.L85:
 686               	.LBE20:
 687               	.LM63:
 688 031c 892F      		mov r24,r25
 689 031e 8150      		subi r24,lo8(-(-1))
 690 0320 803F      		cpi r24,lo8(-16)
 691 0322 00F4      		brsh .L92
 692               	.LM64:
 693 0324 8091 6200 		lds r24,98
 694 0328 8B7F      		andi r24,lo8(-5)
 695 032a 8093 6200 		sts 98,r24
 696               	.LM65:
 697 032e 1B98      		cbi 35-0x20,3
 698               	.LM66:
 699 0330 9698      		cbi 50-0x20,6
 700               	.LM67:
 701 0332 9093 0000 		sts fingermap_id,r25
 702 0336 80E0      		ldi r24,lo8(0)
 703 0338 90E0      		ldi r25,hi8(0)
 704 033a 00C0      		rjmp .L94
 705               	.L92:
 706               	.LM68:
 707 033c 24E0      		ldi r18,lo8(4)
 708               	.LVL57:
 709               	.LVL58:
 710               	.L95:
 711               	.LBB23:
 712               	.LM69:
 713 033e 8091 6200 		lds r24,98
 714               	.LVL59:
 715 0342 8860      		ori r24,lo8(8)
 716 0344 8093 6200 		sts 98,r24
 717 0348 80E5      		ldi r24,lo8(18000)
 718 034a 96E4      		ldi r25,hi8(18000)
 719               	.LVL60:
 720               	.L96:
 721               	.LBB24:
 722               	/* #APP */
 723 034c 0000      		nop
 724               		
 725 034e 0000      		nop
 726               		
 727 0350 0000      		nop
 728               		
 729 0352 0000      		nop
 730               		
 731               	/* #NOAPP */
 732 0354 0197      		sbiw r24,1
 733 0356 01F4      		brne .L96
 734               	.LBE24:
 735 0358 8091 6200 		lds r24,98
 736               	.LVL61:
 737 035c 877F      		andi r24,lo8(-9)
 738 035e 8093 6200 		sts 98,r24
 739 0362 80E5      		ldi r24,lo8(18000)
 740 0364 96E4      		ldi r25,hi8(18000)
 741               	.LVL62:
 742               	.L98:
 743               	.LBB25:
 744               	/* #APP */
 745 0366 0000      		nop
 746               		
 747 0368 0000      		nop
 748               		
 749 036a 0000      		nop
 750               		
 751 036c 0000      		nop
 752               		
 753               	/* #NOAPP */
 754 036e 0197      		sbiw r24,1
 755 0370 01F4      		brne .L98
 756               	.LBE25:
 757 0372 2150      		subi r18,lo8(-(-1))
 758 0374 01F0      		breq .L66
 759 0376 00C0      		rjmp .L95
 760               	.LVL63:
 761               	.L68:
 762 0378 25E0      		ldi r18,lo8(5)
 763               	.LVL64:
 764               	.LVL65:
 765               	.L100:
 766               	.LBE23:
 767               	.LBB26:
 768               	.LM70:
 769 037a 8091 6200 		lds r24,98
 770               	.LVL66:
 771 037e 8860      		ori r24,lo8(8)
 772 0380 8093 6200 		sts 98,r24
 773 0384 80E5      		ldi r24,lo8(18000)
 774 0386 96E4      		ldi r25,hi8(18000)
 775               	.LVL67:
 776               	.L101:
 777               	.LBB27:
 778               	/* #APP */
 779 0388 0000      		nop
 780               		
 781 038a 0000      		nop
 782               		
 783 038c 0000      		nop
 784               		
 785 038e 0000      		nop
 786               		
 787               	/* #NOAPP */
 788 0390 0197      		sbiw r24,1
 789 0392 01F4      		brne .L101
 790               	.LBE27:
 791 0394 8091 6200 		lds r24,98
 792               	.LVL68:
 793 0398 877F      		andi r24,lo8(-9)
 794 039a 8093 6200 		sts 98,r24
 795 039e 80E5      		ldi r24,lo8(18000)
 796 03a0 96E4      		ldi r25,hi8(18000)
 797               	.LVL69:
 798               	.L103:
 799               	.LBB28:
 800               	/* #APP */
 801 03a2 0000      		nop
 802               		
 803 03a4 0000      		nop
 804               		
 805 03a6 0000      		nop
 806               		
 807 03a8 0000      		nop
 808               		
 809               	/* #NOAPP */
 810 03aa 0197      		sbiw r24,1
 811 03ac 01F4      		brne .L103
 812               	.LBE28:
 813 03ae 2150      		subi r18,lo8(-(-1))
 814 03b0 01F4      		brne .L100
 815               	.LVL70:
 816               	.L66:
 817 03b2 81E0      		ldi r24,lo8(1)
 818 03b4 90E0      		ldi r25,hi8(1)
 819               	.LVL71:
 820               	.L94:
 821               	.LBE26:
 822               	/* epilogue: frame size=18 */
 823 03b6 6296      		adiw r28,18
 824 03b8 0FB6      		in __tmp_reg__,__SREG__
 825 03ba F894      		cli
 826 03bc DEBF      		out __SP_H__,r29
 827 03be 0FBE      		out __SREG__,__tmp_reg__
 828 03c0 CDBF      		out __SP_L__,r28
 829 03c2 DF91      		pop r29
 830 03c4 CF91      		pop r28
 831 03c6 0895      		ret
 832               	/* epilogue end (size=9) */
 833               	/* function User_auth size 367 (348) */
 834               	.LFE5:
 836               	.global	User_enroll
 838               	User_enroll:
 839               	.LFB3:
 840               	.LM71:
 841               	/* prologue: frame size=20 */
 842 03c8 CF93      		push r28
 843 03ca DF93      		push r29
 844 03cc CDB7      		in r28,__SP_L__
 845 03ce DEB7      		in r29,__SP_H__
 846 03d0 6497      		sbiw r28,20
 847 03d2 0FB6      		in __tmp_reg__,__SREG__
 848 03d4 F894      		cli
 849 03d6 DEBF      		out __SP_H__,r29
 850 03d8 0FBE      		out __SREG__,__tmp_reg__
 851 03da CDBF      		out __SP_L__,r28
 852               	/* prologue end (size=10) */
 853               	.LVL72:
 854               	.LM72:
 855 03dc 22E0      		ldi r18,lo8(2)
 856 03de 2983      		std Y+1,r18
 857               	.LM73:
 858 03e0 94E0      		ldi r25,lo8(4)
 859 03e2 9A83      		std Y+2,r25
 860               	.LM74:
 861 03e4 31E0      		ldi r19,lo8(1)
 862 03e6 3B83      		std Y+3,r19
 863               	.LM75:
 864 03e8 2C83      		std Y+4,r18
 865               	.LM76:
 866 03ea 91E2      		ldi r25,lo8(33)
 867 03ec 9D83      		std Y+5,r25
 868               	.LM77:
 869 03ee 8E83      		std Y+6,r24
 870               	.LM78:
 871 03f0 2F83      		std Y+7,r18
 872               	.LM79:
 873 03f2 3887      		std Y+8,r19
 874               	.LM80:
 875 03f4 83E0      		ldi r24,lo8(3)
 876               	.LVL73:
 877 03f6 8987      		std Y+9,r24
 878               	.LM81:
 879 03f8 8091 6200 		lds r24,98
 880 03fc 8B7F      		andi r24,lo8(-5)
 881 03fe 8093 6200 		sts 98,r24
 882               	.LM82:
 883 0402 69E0      		ldi r22,lo8(9)
 884 0404 70E0      		ldi r23,hi8(9)
 885 0406 CE01      		movw r24,r28
 886 0408 0196      		adiw r24,1
 887 040a 0E94 0000 		call UART1_write
 888               	.LM83:
 889 040e 6BE0      		ldi r22,lo8(11)
 890 0410 70E0      		ldi r23,hi8(11)
 891 0412 CE01      		movw r24,r28
 892 0414 0A96      		adiw r24,10
 893 0416 0E94 0000 		call UART1_read
 894               	.LM84:
 895 041a 8A85      		ldd r24,Y+10
 896 041c 8230      		cpi r24,lo8(2)
 897 041e 01F4      		brne .L132
 898               	.LM85:
 899 0420 8B85      		ldd r24,Y+11
 900 0422 8630      		cpi r24,lo8(6)
 901 0424 01F4      		brne .L132
 902 0426 8C85      		ldd r24,Y+12
 903 0428 8430      		cpi r24,lo8(4)
 904 042a 01F4      		brne .L132
 905 042c 8D85      		ldd r24,Y+13
 906 042e 8430      		cpi r24,lo8(4)
 907 0430 01F4      		brne .L132
 908 0432 8E85      		ldd r24,Y+14
 909 0434 8132      		cpi r24,lo8(33)
 910 0436 01F4      		brne .L132
 911 0438 8F85      		ldd r24,Y+15
 912 043a 8130      		cpi r24,lo8(1)
 913 043c 01F4      		brne .L132
 914 043e 8889      		ldd r24,Y+16
 915 0440 8230      		cpi r24,lo8(2)
 916 0442 01F4      		brne .L132
 917 0444 8989      		ldd r24,Y+17
 918 0446 8F3F      		cpi r24,lo8(-1)
 919 0448 01F4      		brne .L132
 920 044a 8A89      		ldd r24,Y+18
 921 044c 8230      		cpi r24,lo8(2)
 922 044e 01F4      		brne .L132
 923 0450 8B89      		ldd r24,Y+19
 924 0452 8130      		cpi r24,lo8(1)
 925 0454 01F4      		brne .L132
 926 0456 8C89      		ldd r24,Y+20
 927 0458 8630      		cpi r24,lo8(6)
 928 045a 01F0      		breq .L143
 929               	.L132:
 930 045c 23E0      		ldi r18,lo8(3)
 931               	.LVL74:
 932               	.LVL75:
 933               	.L144:
 934               	.LBB29:
 935               	.LM86:
 936 045e 8091 6200 		lds r24,98
 937               	.LVL76:
 938 0462 8860      		ori r24,lo8(8)
 939 0464 8093 6200 		sts 98,r24
 940 0468 80E5      		ldi r24,lo8(18000)
 941 046a 96E4      		ldi r25,hi8(18000)
 942               	.LVL77:
 943               	.L145:
 944               	.LBB30:
 945               	/* #APP */
 946 046c 0000      		nop
 947               		
 948 046e 0000      		nop
 949               		
 950 0470 0000      		nop
 951               		
 952 0472 0000      		nop
 953               		
 954               	/* #NOAPP */
 955 0474 0197      		sbiw r24,1
 956 0476 01F4      		brne .L145
 957               	.LBE30:
 958 0478 8091 6200 		lds r24,98
 959               	.LVL78:
 960 047c 877F      		andi r24,lo8(-9)
 961 047e 8093 6200 		sts 98,r24
 962 0482 80E5      		ldi r24,lo8(18000)
 963 0484 96E4      		ldi r25,hi8(18000)
 964               	.LVL79:
 965               	.L147:
 966               	.LBB31:
 967               	/* #APP */
 968 0486 0000      		nop
 969               		
 970 0488 0000      		nop
 971               		
 972 048a 0000      		nop
 973               		
 974 048c 0000      		nop
 975               		
 976               	/* #NOAPP */
 977 048e 0197      		sbiw r24,1
 978 0490 01F4      		brne .L147
 979               	.LBE31:
 980 0492 2150      		subi r18,lo8(-(-1))
 981 0494 01F4      		brne .L144
 982 0496 00C0      		rjmp .L260
 983               	.LVL80:
 984               	.L143:
 985               	.LBE29:
 986               	.LM87:
 987 0498 21E0      		ldi r18,lo8(1)
 988               	.LVL81:
 989               	.LVL82:
 990               	.L151:
 991               	.LBB32:
 992               	.LM88:
 993 049a 8091 6200 		lds r24,98
 994               	.LVL83:
 995 049e 8860      		ori r24,lo8(8)
 996 04a0 8093 6200 		sts 98,r24
 997 04a4 80E5      		ldi r24,lo8(18000)
 998 04a6 96E4      		ldi r25,hi8(18000)
 999               	.LVL84:
 1000               	.L152:
 1001               	.LBB33:
 1002               	/* #APP */
 1003 04a8 0000      		nop
 1004               		
 1005 04aa 0000      		nop
 1006               		
 1007 04ac 0000      		nop
 1008               		
 1009 04ae 0000      		nop
 1010               		
 1011               	/* #NOAPP */
 1012 04b0 0197      		sbiw r24,1
 1013 04b2 01F4      		brne .L152
 1014               	.LBE33:
 1015 04b4 8091 6200 		lds r24,98
 1016               	.LVL85:
 1017 04b8 877F      		andi r24,lo8(-9)
 1018 04ba 8093 6200 		sts 98,r24
 1019 04be 80E5      		ldi r24,lo8(18000)
 1020 04c0 96E4      		ldi r25,hi8(18000)
 1021               	.LVL86:
 1022               	.L154:
 1023               	.LBB34:
 1024               	/* #APP */
 1025 04c2 0000      		nop
 1026               		
 1027 04c4 0000      		nop
 1028               		
 1029 04c6 0000      		nop
 1030               		
 1031 04c8 0000      		nop
 1032               		
 1033               	/* #NOAPP */
 1034 04ca 0197      		sbiw r24,1
 1035 04cc 01F4      		brne .L154
 1036               	.LBE34:
 1037 04ce 2150      		subi r18,lo8(-(-1))
 1038 04d0 01F4      		brne .L151
 1039               	.LBE32:
 1040               	.LM89:
 1041 04d2 1B98      		cbi 35-0x20,3
 1042               	.LM90:
 1043 04d4 6BE0      		ldi r22,lo8(11)
 1044 04d6 70E0      		ldi r23,hi8(11)
 1045 04d8 CE01      		movw r24,r28
 1046               	.LVL87:
 1047 04da 0A96      		adiw r24,10
 1048 04dc 0E94 0000 		call UART1_read
 1049               	.LVL88:
 1050               	.LM91:
 1051 04e0 8A85      		ldd r24,Y+10
 1052 04e2 8230      		cpi r24,lo8(2)
 1053 04e4 01F4      		brne .L157
 1054 04e6 8B85      		ldd r24,Y+11
 1055 04e8 8630      		cpi r24,lo8(6)
 1056 04ea 01F4      		brne .L157
 1057 04ec 8C85      		ldd r24,Y+12
 1058 04ee 8430      		cpi r24,lo8(4)
 1059 04f0 01F4      		brne .L157
 1060 04f2 8D85      		ldd r24,Y+13
 1061 04f4 8430      		cpi r24,lo8(4)
 1062 04f6 01F4      		brne .L157
 1063 04f8 8E85      		ldd r24,Y+14
 1064 04fa 8132      		cpi r24,lo8(33)
 1065 04fc 01F4      		brne .L157
 1066 04fe 8F85      		ldd r24,Y+15
 1067 0500 8230      		cpi r24,lo8(2)
 1068 0502 01F4      		brne .L157
 1069 0504 8889      		ldd r24,Y+16
 1070 0506 8230      		cpi r24,lo8(2)
 1071 0508 01F4      		brne .L157
 1072 050a 8989      		ldd r24,Y+17
 1073 050c 8F3F      		cpi r24,lo8(-1)
 1074 050e 01F4      		brne .L157
 1075 0510 8A89      		ldd r24,Y+18
 1076 0512 8230      		cpi r24,lo8(2)
 1077 0514 01F4      		brne .L157
 1078 0516 8B89      		ldd r24,Y+19
 1079 0518 8130      		cpi r24,lo8(1)
 1080 051a 01F4      		brne .L157
 1081 051c 8C89      		ldd r24,Y+20
 1082 051e 8630      		cpi r24,lo8(6)
 1083 0520 01F0      		breq .L168
 1084               	.L157:
 1085 0522 23E0      		ldi r18,lo8(3)
 1086               	.LVL89:
 1087               	.LVL90:
 1088               	.L169:
 1089               	.LBB35:
 1090               	.LM92:
 1091 0524 8091 6200 		lds r24,98
 1092               	.LVL91:
 1093 0528 8860      		ori r24,lo8(8)
 1094 052a 8093 6200 		sts 98,r24
 1095 052e 80E5      		ldi r24,lo8(18000)
 1096 0530 96E4      		ldi r25,hi8(18000)
 1097               	.LVL92:
 1098               	.L170:
 1099               	.LBB36:
 1100               	/* #APP */
 1101 0532 0000      		nop
 1102               		
 1103 0534 0000      		nop
 1104               		
 1105 0536 0000      		nop
 1106               		
 1107 0538 0000      		nop
 1108               		
 1109               	/* #NOAPP */
 1110 053a 0197      		sbiw r24,1
 1111 053c 01F4      		brne .L170
 1112               	.LBE36:
 1113 053e 8091 6200 		lds r24,98
 1114               	.LVL93:
 1115 0542 877F      		andi r24,lo8(-9)
 1116 0544 8093 6200 		sts 98,r24
 1117 0548 80E5      		ldi r24,lo8(18000)
 1118 054a 96E4      		ldi r25,hi8(18000)
 1119               	.LVL94:
 1120               	.L172:
 1121               	.LBB37:
 1122               	/* #APP */
 1123 054c 0000      		nop
 1124               		
 1125 054e 0000      		nop
 1126               		
 1127 0550 0000      		nop
 1128               		
 1129 0552 0000      		nop
 1130               		
 1131               	/* #NOAPP */
 1132 0554 0197      		sbiw r24,1
 1133 0556 01F4      		brne .L172
 1134               	.LBE37:
 1135 0558 2150      		subi r18,lo8(-(-1))
 1136 055a 01F4      		brne .L169
 1137 055c 00C0      		rjmp .L259
 1138               	.LVL95:
 1139               	.L168:
 1140               	.LBE35:
 1141               	.LM93:
 1142 055e 22E0      		ldi r18,lo8(2)
 1143               	.LVL96:
 1144               	.LVL97:
 1145               	.L175:
 1146               	.LBB38:
 1147               	.LM94:
 1148 0560 8091 6200 		lds r24,98
 1149               	.LVL98:
 1150 0564 8860      		ori r24,lo8(8)
 1151 0566 8093 6200 		sts 98,r24
 1152 056a 80E5      		ldi r24,lo8(18000)
 1153 056c 96E4      		ldi r25,hi8(18000)
 1154               	.LVL99:
 1155               	.L176:
 1156               	.LBB39:
 1157               	/* #APP */
 1158 056e 0000      		nop
 1159               		
 1160 0570 0000      		nop
 1161               		
 1162 0572 0000      		nop
 1163               		
 1164 0574 0000      		nop
 1165               		
 1166               	/* #NOAPP */
 1167 0576 0197      		sbiw r24,1
 1168 0578 01F4      		brne .L176
 1169               	.LBE39:
 1170 057a 8091 6200 		lds r24,98
 1171               	.LVL100:
 1172 057e 877F      		andi r24,lo8(-9)
 1173 0580 8093 6200 		sts 98,r24
 1174 0584 80E5      		ldi r24,lo8(18000)
 1175 0586 96E4      		ldi r25,hi8(18000)
 1176               	.LVL101:
 1177               	.L178:
 1178               	.LBB40:
 1179               	/* #APP */
 1180 0588 0000      		nop
 1181               		
 1182 058a 0000      		nop
 1183               		
 1184 058c 0000      		nop
 1185               		
 1186 058e 0000      		nop
 1187               		
 1188               	/* #NOAPP */
 1189 0590 0197      		sbiw r24,1
 1190 0592 01F4      		brne .L178
 1191               	.LBE40:
 1192 0594 2150      		subi r18,lo8(-(-1))
 1193 0596 01F4      		brne .L175
 1194               	.LBE38:
 1195               	.LM95:
 1196 0598 9698      		cbi 50-0x20,6
 1197               	.LM96:
 1198 059a 6BE0      		ldi r22,lo8(11)
 1199 059c 70E0      		ldi r23,hi8(11)
 1200 059e CE01      		movw r24,r28
 1201               	.LVL102:
 1202 05a0 0A96      		adiw r24,10
 1203 05a2 0E94 0000 		call UART1_read
 1204               	.LVL103:
 1205               	.LM97:
 1206 05a6 8A85      		ldd r24,Y+10
 1207 05a8 8230      		cpi r24,lo8(2)
 1208 05aa 01F4      		brne .L181
 1209 05ac 8B85      		ldd r24,Y+11
 1210 05ae 8630      		cpi r24,lo8(6)
 1211 05b0 01F4      		brne .L181
 1212 05b2 8C85      		ldd r24,Y+12
 1213 05b4 8430      		cpi r24,lo8(4)
 1214 05b6 01F4      		brne .L181
 1215 05b8 8D85      		ldd r24,Y+13
 1216 05ba 8430      		cpi r24,lo8(4)
 1217 05bc 01F4      		brne .L181
 1218 05be 8E85      		ldd r24,Y+14
 1219 05c0 8132      		cpi r24,lo8(33)
 1220 05c2 01F4      		brne .L181
 1221 05c4 8F85      		ldd r24,Y+15
 1222 05c6 8330      		cpi r24,lo8(3)
 1223 05c8 01F4      		brne .L181
 1224 05ca 8889      		ldd r24,Y+16
 1225 05cc 8130      		cpi r24,lo8(1)
 1226 05ce 01F4      		brne .L181
 1227 05d0 8A89      		ldd r24,Y+18
 1228 05d2 8230      		cpi r24,lo8(2)
 1229 05d4 01F4      		brne .L181
 1230 05d6 8B89      		ldd r24,Y+19
 1231 05d8 8130      		cpi r24,lo8(1)
 1232 05da 01F4      		brne .L181
 1233 05dc 8C89      		ldd r24,Y+20
 1234 05de 8630      		cpi r24,lo8(6)
 1235 05e0 01F4      		brne .+2
 1236 05e2 00C0      		rjmp .L191
 1237               	.L181:
 1238 05e4 23E0      		ldi r18,lo8(3)
 1239               	.LVL104:
 1240               	.LVL105:
 1241               	.L192:
 1242               	.LBB41:
 1243               	.LM98:
 1244 05e6 8091 6200 		lds r24,98
 1245               	.LVL106:
 1246 05ea 8860      		ori r24,lo8(8)
 1247 05ec 8093 6200 		sts 98,r24
 1248 05f0 80E5      		ldi r24,lo8(18000)
 1249 05f2 96E4      		ldi r25,hi8(18000)
 1250               	.LVL107:
 1251               	.L193:
 1252               	.LBB42:
 1253               	/* #APP */
 1254 05f4 0000      		nop
 1255               		
 1256 05f6 0000      		nop
 1257               		
 1258 05f8 0000      		nop
 1259               		
 1260 05fa 0000      		nop
 1261               		
 1262               	/* #NOAPP */
 1263 05fc 0197      		sbiw r24,1
 1264 05fe 01F4      		brne .L193
 1265               	.LBE42:
 1266 0600 8091 6200 		lds r24,98
 1267               	.LVL108:
 1268 0604 877F      		andi r24,lo8(-9)
 1269 0606 8093 6200 		sts 98,r24
 1270 060a 80E5      		ldi r24,lo8(18000)
 1271 060c 96E4      		ldi r25,hi8(18000)
 1272               	.LVL109:
 1273               	.L195:
 1274               	.LBB43:
 1275               	/* #APP */
 1276 060e 0000      		nop
 1277               		
 1278 0610 0000      		nop
 1279               		
 1280 0612 0000      		nop
 1281               		
 1282 0614 0000      		nop
 1283               		
 1284               	/* #NOAPP */
 1285 0616 0197      		sbiw r24,1
 1286 0618 01F4      		brne .L195
 1287               	.LBE43:
 1288 061a 2150      		subi r18,lo8(-(-1))
 1289 061c 01F4      		brne .L192
 1290               	.LBE41:
 1291               	.LM99:
 1292 061e 969A      		sbi 50-0x20,6
 1293               	.LVL110:
 1294               	.L259:
 1295               	.LM100:
 1296 0620 1B9A      		sbi 35-0x20,3
 1297               	.LVL111:
 1298               	.L260:
 1299               	.LM101:
 1300 0622 8091 6200 		lds r24,98
 1301               	.LVL112:
 1302 0626 8460      		ori r24,lo8(4)
 1303 0628 8093 6200 		sts 98,r24
 1304               	.LM102:
 1305 062c 8FEF      		ldi r24,lo8(-1)
 1306 062e 0E94 0000 		call User_enroll
 1307               	.LVL113:
 1308 0632 00C0      		rjmp .L212
 1309               	.L191:
 1310               	.LM103:
 1311 0634 9598      		cbi 50-0x20,5
 1312 0636 21E0      		ldi r18,lo8(1)
 1313               	.LVL114:
 1314               	.LVL115:
 1315               	.L198:
 1316               	.LBB44:
 1317               	.LM104:
 1318 0638 8091 6200 		lds r24,98
 1319               	.LVL116:
 1320 063c 8860      		ori r24,lo8(8)
 1321 063e 8093 6200 		sts 98,r24
 1322 0642 80E6      		ldi r24,lo8(-5536)
 1323 0644 9AEE      		ldi r25,hi8(-5536)
 1324               	.LVL117:
 1325               	.L199:
 1326               	.LBB45:
 1327               	/* #APP */
 1328 0646 0000      		nop
 1329               		
 1330 0648 0000      		nop
 1331               		
 1332 064a 0000      		nop
 1333               		
 1334 064c 0000      		nop
 1335               		
 1336               	/* #NOAPP */
 1337 064e 0197      		sbiw r24,1
 1338 0650 01F4      		brne .L199
 1339               	.LBE45:
 1340 0652 8091 6200 		lds r24,98
 1341               	.LVL118:
 1342 0656 877F      		andi r24,lo8(-9)
 1343 0658 8093 6200 		sts 98,r24
 1344 065c 80E6      		ldi r24,lo8(-5536)
 1345 065e 9AEE      		ldi r25,hi8(-5536)
 1346               	.LVL119:
 1347               	.L201:
 1348               	.LBB46:
 1349               	/* #APP */
 1350 0660 0000      		nop
 1351               		
 1352 0662 0000      		nop
 1353               		
 1354 0664 0000      		nop
 1355               		
 1356 0666 0000      		nop
 1357               		
 1358               	/* #NOAPP */
 1359 0668 0197      		sbiw r24,1
 1360 066a 01F4      		brne .L201
 1361               	.LBE46:
 1362 066c 2150      		subi r18,lo8(-(-1))
 1363 066e 01F4      		brne .L198
 1364 0670 22E0      		ldi r18,lo8(2)
 1365               	.LVL120:
 1366               	.LVL121:
 1367               	.L204:
 1368               	.LBE44:
 1369               	.LBB47:
 1370 0672 8091 6200 		lds r24,98
 1371               	.LVL122:
 1372 0676 8860      		ori r24,lo8(8)
 1373 0678 8093 6200 		sts 98,r24
 1374 067c 88EA      		ldi r24,lo8(25000)
 1375 067e 91E6      		ldi r25,hi8(25000)
 1376               	.LVL123:
 1377               	.L205:
 1378               	.LBB48:
 1379               	/* #APP */
 1380 0680 0000      		nop
 1381               		
 1382 0682 0000      		nop
 1383               		
 1384 0684 0000      		nop
 1385               		
 1386 0686 0000      		nop
 1387               		
 1388               	/* #NOAPP */
 1389 0688 0197      		sbiw r24,1
 1390 068a 01F4      		brne .L205
 1391               	.LBE48:
 1392 068c 8091 6200 		lds r24,98
 1393               	.LVL124:
 1394 0690 877F      		andi r24,lo8(-9)
 1395 0692 8093 6200 		sts 98,r24
 1396 0696 88EA      		ldi r24,lo8(25000)
 1397 0698 91E6      		ldi r25,hi8(25000)
 1398               	.LVL125:
 1399               	.L207:
 1400               	.LBB49:
 1401               	/* #APP */
 1402 069a 0000      		nop
 1403               		
 1404 069c 0000      		nop
 1405               		
 1406 069e 0000      		nop
 1407               		
 1408 06a0 0000      		nop
 1409               		
 1410               	/* #NOAPP */
 1411 06a2 0197      		sbiw r24,1
 1412 06a4 01F4      		brne .L207
 1413               	.LBE49:
 1414 06a6 2150      		subi r18,lo8(-(-1))
 1415 06a8 01F4      		brne .L204
 1416 06aa 80E5      		ldi r24,lo8(-15536)
 1417 06ac 93EC      		ldi r25,hi8(-15536)
 1418               	.LVL126:
 1419               	.L210:
 1420               	.LBE47:
 1421               	.LBB50:
 1422               	.LM105:
 1423               	/* #APP */
 1424 06ae 0000      		nop
 1425               		
 1426 06b0 0000      		nop
 1427               		
 1428 06b2 0000      		nop
 1429               		
 1430 06b4 0000      		nop
 1431               		
 1432               	/* #NOAPP */
 1433 06b6 0197      		sbiw r24,1
 1434 06b8 01F4      		brne .L210
 1435               	.LBE50:
 1436               	.LM106:
 1437 06ba 8989      		ldd r24,Y+17
 1438               	.LVL127:
 1439 06bc 8093 0000 		sts fingermap_id,r24
 1440               	.LM107:
 1441 06c0 959A      		sbi 50-0x20,5
 1442               	.LM108:
 1443 06c2 969A      		sbi 50-0x20,6
 1444               	.LM109:
 1445 06c4 1B9A      		sbi 35-0x20,3
 1446               	.LM110:
 1447 06c6 8091 6200 		lds r24,98
 1448 06ca 8460      		ori r24,lo8(4)
 1449 06cc 8093 6200 		sts 98,r24
 1450               	.LM111:
 1451 06d0 80E0      		ldi r24,lo8(0)
 1452 06d2 90E0      		ldi r25,hi8(0)
 1453               	.L212:
 1454               	/* epilogue: frame size=20 */
 1455 06d4 6496      		adiw r28,20
 1456 06d6 0FB6      		in __tmp_reg__,__SREG__
 1457 06d8 F894      		cli
 1458 06da DEBF      		out __SP_H__,r29
 1459 06dc 0FBE      		out __SREG__,__tmp_reg__
 1460 06de CDBF      		out __SP_L__,r28
 1461 06e0 DF91      		pop r29
 1462 06e2 CF91      		pop r28
 1463 06e4 0895      		ret
 1464               	/* epilogue end (size=9) */
 1465               	/* function User_enroll size 601 (582) */
 1466               	.LFE3:
 1468               	.global	fingermap_erase_apl
 1470               	fingermap_erase_apl:
 1471               	.LFB8:
 1472               	.LM112:
 1473               	/* prologue: frame size=0 */
 1474 06e6 1F93      		push r17
 1475               	/* prologue end (size=1) */
 1476               	.LVL128:
 1477 06e8 182F      		mov r17,r24
 1478               	.LM113:
 1479 06ea 89B7      		in r24,89-0x20
 1480               	.LVL129:
 1481 06ec 8F7E      		andi r24,lo8(-17)
 1482 06ee 89BF      		out 89-0x20,r24
 1483               	.LM114:
 1484 06f0 0E94 0000 		call UART1_RX_flash
 1485               	.LM115:
 1486 06f4 812F      		mov r24,r17
 1487 06f6 0E94 0000 		call User_erase
 1488               	.LM116:
 1489 06fa 99B7      		in r25,89-0x20
 1490 06fc 9061      		ori r25,lo8(16)
 1491 06fe 99BF      		out 89-0x20,r25
 1492               	.LM117:
 1493 0700 8823      		tst r24
 1494 0702 01F0      		breq .L262
 1495               	.LM118:
 1496 0704 81E0      		ldi r24,lo8(1)
 1497 0706 90E0      		ldi r25,hi8(1)
 1498 0708 00C0      		rjmp .L264
 1499               	.L262:
 1500               	.LM119:
 1501 070a 9598      		cbi 50-0x20,5
 1502 070c 80E5      		ldi r24,lo8(-15536)
 1503 070e 93EC      		ldi r25,hi8(-15536)
 1504               	.LVL130:
 1505               	.L265:
 1506               	.LBB51:
 1507               	.LM120:
 1508               	/* #APP */
 1509 0710 0000      		nop
 1510               		
 1511 0712 0000      		nop
 1512               		
 1513 0714 0000      		nop
 1514               		
 1515 0716 0000      		nop
 1516               		
 1517               	/* #NOAPP */
 1518 0718 0197      		sbiw r24,1
 1519 071a 01F4      		brne .L265
 1520               	.LBE51:
 1521               	.LM121:
 1522 071c 959A      		sbi 50-0x20,5
 1523 071e 80E5      		ldi r24,lo8(-15536)
 1524 0720 93EC      		ldi r25,hi8(-15536)
 1525               	.LVL131:
 1526               	.L267:
 1527               	.LBB52:
 1528               	.LM122:
 1529               	/* #APP */
 1530 0722 0000      		nop
 1531               		
 1532 0724 0000      		nop
 1533               		
 1534 0726 0000      		nop
 1535               		
 1536 0728 0000      		nop
 1537               		
 1538               	/* #NOAPP */
 1539 072a 0197      		sbiw r24,1
 1540 072c 01F4      		brne .L267
 1541 072e 80E0      		ldi r24,lo8(0)
 1542 0730 90E0      		ldi r25,hi8(0)
 1543               	.LVL132:
 1544               	.L264:
 1545               	.LBE52:
 1546               	/* epilogue: frame size=0 */
 1547 0732 1F91      		pop r17
 1548 0734 0895      		ret
 1549               	/* epilogue end (size=2) */
 1550               	/* function fingermap_erase_apl size 66 (63) */
 1551               	.LFE8:
 1553               	.global	fingermap_auth_apl
 1555               	fingermap_auth_apl:
 1556               	.LFB6:
 1557               	.LM123:
 1558               	/* prologue: frame size=0 */
 1559 0736 1F93      		push r17
 1560               	/* prologue end (size=1) */
 1561 0738 10E0      		ldi r17,lo8(0)
 1562               	.LVL133:
 1563               	.L275:
 1564               	.LM124:
 1565 073a 89B7      		in r24,89-0x20
 1566 073c 8F7E      		andi r24,lo8(-17)
 1567 073e 89BF      		out 89-0x20,r24
 1568               	.LM125:
 1569 0740 0E94 0000 		call UART1_RX_flash
 1570               	.LM126:
 1571 0744 8FEF      		ldi r24,lo8(-1)
 1572 0746 0E94 0000 		call User_auth
 1573               	.LM127:
 1574 074a 99B7      		in r25,89-0x20
 1575 074c 9061      		ori r25,lo8(16)
 1576 074e 99BF      		out 89-0x20,r25
 1577               	.LM128:
 1578 0750 8823      		tst r24
 1579 0752 01F4      		brne .L276
 1580               	.LM129:
 1581 0754 9598      		cbi 50-0x20,5
 1582 0756 80E5      		ldi r24,lo8(-15536)
 1583 0758 93EC      		ldi r25,hi8(-15536)
 1584               	.LVL134:
 1585               	.L278:
 1586               	.LBB53:
 1587               	.LM130:
 1588               	/* #APP */
 1589 075a 0000      		nop
 1590               		
 1591 075c 0000      		nop
 1592               		
 1593 075e 0000      		nop
 1594               		
 1595 0760 0000      		nop
 1596               		
 1597               	/* #NOAPP */
 1598 0762 0197      		sbiw r24,1
 1599 0764 01F4      		brne .L278
 1600               	.LBE53:
 1601               	.LM131:
 1602 0766 959A      		sbi 50-0x20,5
 1603 0768 80E5      		ldi r24,lo8(-15536)
 1604 076a 93EC      		ldi r25,hi8(-15536)
 1605               	.LVL135:
 1606               	.L280:
 1607               	.LBB54:
 1608               	.LM132:
 1609               	/* #APP */
 1610 076c 0000      		nop
 1611               		
 1612 076e 0000      		nop
 1613               		
 1614 0770 0000      		nop
 1615               		
 1616 0772 0000      		nop
 1617               		
 1618               	/* #NOAPP */
 1619 0774 0197      		sbiw r24,1
 1620 0776 01F4      		brne .L280
 1621 0778 80E0      		ldi r24,lo8(0)
 1622 077a 90E0      		ldi r25,hi8(0)
 1623               	.LVL136:
 1624 077c 00C0      		rjmp .L282
 1625               	.L276:
 1626               	.LBE54:
 1627               	.LM133:
 1628 077e 1F5F      		subi r17,lo8(-(1))
 1629 0780 1330      		cpi r17,lo8(3)
 1630 0782 01F4      		brne .L275
 1631 0784 81E0      		ldi r24,lo8(1)
 1632 0786 90E0      		ldi r25,hi8(1)
 1633               	.L282:
 1634               	/* epilogue: frame size=0 */
 1635 0788 1F91      		pop r17
 1636 078a 0895      		ret
 1637               	/* epilogue end (size=2) */
 1638               	/* function fingermap_auth_apl size 69 (66) */
 1639               	.LFE6:
 1641               	.global	fingermap_enroll_apl
 1643               	fingermap_enroll_apl:
 1644               	.LFB4:
 1645               	.LM134:
 1646               	/* prologue: frame size=0 */
 1647               	/* prologue end (size=0) */
 1648               	.L292:
 1649               	.LM135:
 1650 078c 89B7      		in r24,89-0x20
 1651 078e 8F7E      		andi r24,lo8(-17)
 1652 0790 89BF      		out 89-0x20,r24
 1653               	.LM136:
 1654 0792 0E94 0000 		call UART1_RX_flash
 1655               	.LM137:
 1656 0796 8FEF      		ldi r24,lo8(-1)
 1657 0798 0E94 0000 		call User_enroll
 1658               	.LM138:
 1659 079c 99B7      		in r25,89-0x20
 1660 079e 9061      		ori r25,lo8(16)
 1661 07a0 99BF      		out 89-0x20,r25
 1662               	.LM139:
 1663 07a2 8823      		tst r24
 1664 07a4 01F4      		brne .L292
 1665               	.LM140:
 1666 07a6 9598      		cbi 50-0x20,5
 1667 07a8 80E5      		ldi r24,lo8(-15536)
 1668 07aa 93EC      		ldi r25,hi8(-15536)
 1669               	.LVL137:
 1670               	.L294:
 1671               	.LBB55:
 1672               	.LM141:
 1673               	/* #APP */
 1674 07ac 0000      		nop
 1675               		
 1676 07ae 0000      		nop
 1677               		
 1678 07b0 0000      		nop
 1679               		
 1680 07b2 0000      		nop
 1681               		
 1682               	/* #NOAPP */
 1683 07b4 0197      		sbiw r24,1
 1684 07b6 01F4      		brne .L294
 1685               	.LBE55:
 1686               	.LM142:
 1687 07b8 959A      		sbi 50-0x20,5
 1688 07ba 80E5      		ldi r24,lo8(-15536)
 1689 07bc 93EC      		ldi r25,hi8(-15536)
 1690               	.LVL138:
 1691               	.L296:
 1692               	.LBB56:
 1693               	.LM143:
 1694               	/* #APP */
 1695 07be 0000      		nop
 1696               		
 1697 07c0 0000      		nop
 1698               		
 1699 07c2 0000      		nop
 1700               		
 1701 07c4 0000      		nop
 1702               		
 1703               	/* #NOAPP */
 1704 07c6 0197      		sbiw r24,1
 1705 07c8 01F4      		brne .L296
 1706               	.LBE56:
 1707               	.LM144:
 1708 07ca 80E0      		ldi r24,lo8(0)
 1709 07cc 90E0      		ldi r25,hi8(0)
 1710               	.LVL139:
 1711               	/* epilogue: frame size=0 */
 1712 07ce 0895      		ret
 1713               	/* epilogue end (size=1) */
 1714               	/* function fingermap_enroll_apl size 60 (59) */
 1715               	.LFE4:
 1717               	.global	fingermap_id
 1718               		.data
 1721               	fingermap_id:
 1722 0000 FF        		.byte	-1
 1795               	.Letext0:
DEFINED SYMBOLS
                            *ABS*:00000000 fingermap.c
C:\DOCUME~1\jszx\LOCALS~1\Temp/ccpHlWkF.s:3      *ABS*:0000003f __SREG__
C:\DOCUME~1\jszx\LOCALS~1\Temp/ccpHlWkF.s:4      *ABS*:0000003e __SP_H__
C:\DOCUME~1\jszx\LOCALS~1\Temp/ccpHlWkF.s:5      *ABS*:0000003d __SP_L__
C:\DOCUME~1\jszx\LOCALS~1\Temp/ccpHlWkF.s:6      *ABS*:00000000 __tmp_reg__
C:\DOCUME~1\jszx\LOCALS~1\Temp/ccpHlWkF.s:7      *ABS*:00000001 __zero_reg__
C:\DOCUME~1\jszx\LOCALS~1\Temp/ccpHlWkF.s:20     .text:00000000 User_clear
C:\DOCUME~1\jszx\LOCALS~1\Temp/ccpHlWkF.s:286    .text:00000138 User_erase
C:\DOCUME~1\jszx\LOCALS~1\Temp/ccpHlWkF.s:443    .text:000001f8 User_auth
C:\DOCUME~1\jszx\LOCALS~1\Temp/ccpHlWkF.s:1721   .data:00000000 fingermap_id
C:\DOCUME~1\jszx\LOCALS~1\Temp/ccpHlWkF.s:838    .text:000003c8 User_enroll
C:\DOCUME~1\jszx\LOCALS~1\Temp/ccpHlWkF.s:1470   .text:000006e6 fingermap_erase_apl
C:\DOCUME~1\jszx\LOCALS~1\Temp/ccpHlWkF.s:1555   .text:00000736 fingermap_auth_apl
C:\DOCUME~1\jszx\LOCALS~1\Temp/ccpHlWkF.s:1643   .text:0000078c fingermap_enroll_apl

UNDEFINED SYMBOLS
__do_copy_data
__do_clear_bss
UART1_write
UART1_read
UART1_RX_flash
