   1               		.file	"fingermap.c"
   2               		.arch atmega128
   3               	__SREG__ = 0x3f
   4               	__SP_H__ = 0x3e
   5               	__SP_L__ = 0x3d
   6               	__tmp_reg__ = 0
   7               	__zero_reg__ = 1
   8               		.global __do_copy_data
   9               		.global __do_clear_bss
  17               	.Ltext0:
  18               	.global	User_erase
  20               	User_erase:
  21               	.LFB13:
  22               	.LM1:
  23               	/* prologue: frame size=18 */
  24 0000 CF93      		push r28
  25 0002 DF93      		push r29
  26 0004 CDB7      		in r28,__SP_L__
  27 0006 DEB7      		in r29,__SP_H__
  28 0008 6297      		sbiw r28,18
  29 000a 0FB6      		in __tmp_reg__,__SREG__
  30 000c F894      		cli
  31 000e DEBF      		out __SP_H__,r29
  32 0010 0FBE      		out __SREG__,__tmp_reg__
  33 0012 CDBF      		out __SP_L__,r28
  34               	/* prologue end (size=10) */
  35               	.LVL0:
  36               	.LM2:
  37 0014 22E0      		ldi r18,lo8(2)
  38 0016 2A87      		std Y+10,r18
  39               	.LM3:
  40 0018 94E0      		ldi r25,lo8(4)
  41 001a 9B87      		std Y+11,r25
  42               	.LM4:
  43 001c 31E0      		ldi r19,lo8(1)
  44 001e 3C87      		std Y+12,r19
  45               	.LM5:
  46 0020 2D87      		std Y+13,r18
  47               	.LM6:
  48 0022 92E2      		ldi r25,lo8(34)
  49 0024 9E87      		std Y+14,r25
  50               	.LM7:
  51 0026 8F87      		std Y+15,r24
  52               	.LM8:
  53 0028 288B      		std Y+16,r18
  54               	.LM9:
  55 002a 398B      		std Y+17,r19
  56               	.LM10:
  57 002c 83E0      		ldi r24,lo8(3)
  58               	.LVL1:
  59 002e 8A8B      		std Y+18,r24
  60               	.LM11:
  61 0030 69E0      		ldi r22,lo8(9)
  62 0032 70E0      		ldi r23,hi8(9)
  63 0034 CE01      		movw r24,r28
  64 0036 0A96      		adiw r24,10
  65 0038 0E94 0000 		call UART1_write
  66               	.LM12:
  67 003c 69E0      		ldi r22,lo8(9)
  68 003e 70E0      		ldi r23,hi8(9)
  69 0040 CE01      		movw r24,r28
  70 0042 0196      		adiw r24,1
  71 0044 0E94 0000 		call UART1_read
  72 0048 97FF      		sbrs r25,7
  73 004a 00C0      		rjmp .L2
  74               	.LM13:
  75 004c 23E0      		ldi r18,lo8(3)
  76               	.LVL2:
  77               	.LVL3:
  78               	.L4:
  79               	.LBB2:
  80               	.LM14:
  81 004e 8091 6200 		lds r24,98
  82               	.LVL4:
  83 0052 8860      		ori r24,lo8(8)
  84 0054 8093 6200 		sts 98,r24
  85 0058 80E5      		ldi r24,lo8(18000)
  86 005a 96E4      		ldi r25,hi8(18000)
  87               	.LVL5:
  88               	.L5:
  89               	.LBB3:
  90               	/* #APP */
  91 005c 0000      		nop
  92               		
  93 005e 0000      		nop
  94               		
  95 0060 0000      		nop
  96               		
  97 0062 0000      		nop
  98               		
  99               	/* #NOAPP */
 100 0064 0197      		sbiw r24,1
 101 0066 01F4      		brne .L5
 102               	.LBE3:
 103 0068 8091 6200 		lds r24,98
 104               	.LVL6:
 105 006c 877F      		andi r24,lo8(-9)
 106 006e 8093 6200 		sts 98,r24
 107 0072 80E5      		ldi r24,lo8(18000)
 108 0074 96E4      		ldi r25,hi8(18000)
 109               	.LVL7:
 110               	.L7:
 111               	.LBB4:
 112               	/* #APP */
 113 0076 0000      		nop
 114               		
 115 0078 0000      		nop
 116               		
 117 007a 0000      		nop
 118               		
 119 007c 0000      		nop
 120               		
 121               	/* #NOAPP */
 122 007e 0197      		sbiw r24,1
 123 0080 01F4      		brne .L7
 124               	.LBE4:
 125 0082 2150      		subi r18,lo8(-(-1))
 126 0084 01F0      		breq .L9
 127 0086 00C0      		rjmp .L4
 128               	.LVL8:
 129               	.L2:
 130               	.LBE2:
 131               	.LM15:
 132 0088 8D81      		ldd r24,Y+5
 133 008a 8232      		cpi r24,lo8(34)
 134 008c 01F4      		brne .L9
 135               	.LM16:
 136 008e 8E81      		ldd r24,Y+6
 137 0090 8E3F      		cpi r24,lo8(-2)
 138 0092 01F0      		breq .L9
 139               	.LM17:
 140 0094 8F3F      		cpi r24,lo8(-1)
 141 0096 01F0      		breq .L9
 142               	.LM18:
 143 0098 8C3F      		cpi r24,lo8(-4)
 144 009a 01F0      		breq .L9
 145               	.LM19:
 146 009c 8150      		subi r24,lo8(-(-1))
 147 009e 803F      		cpi r24,lo8(-16)
 148 00a0 00F4      		brsh .L14
 149 00a2 80E0      		ldi r24,lo8(0)
 150 00a4 90E0      		ldi r25,hi8(0)
 151 00a6 00C0      		rjmp .L1
 152               	.L14:
 153 00a8 00C0      		rjmp .L1
 154               	.LVL9:
 155               	.L9:
 156               	.LM20:
 157 00aa 81E0      		ldi r24,lo8(1)
 158 00ac 90E0      		ldi r25,hi8(1)
 159               	.LVL10:
 160               	.L1:
 161               	/* epilogue: frame size=18 */
 162 00ae 6296      		adiw r28,18
 163 00b0 0FB6      		in __tmp_reg__,__SREG__
 164 00b2 F894      		cli
 165 00b4 DEBF      		out __SP_H__,r29
 166 00b6 0FBE      		out __SREG__,__tmp_reg__
 167 00b8 CDBF      		out __SP_L__,r28
 168 00ba DF91      		pop r29
 169 00bc CF91      		pop r28
 170 00be 0895      		ret
 171               	/* epilogue end (size=9) */
 172               	/* function User_erase size 123 (104) */
 173               	.LFE13:
 175               	.global	fingermap_erase_apl
 177               	fingermap_erase_apl:
 178               	.LFB14:
 179               	.LM21:
 180               	/* prologue: frame size=0 */
 181 00c0 1F93      		push r17
 182               	/* prologue end (size=1) */
 183               	.LVL11:
 184 00c2 182F      		mov r17,r24
 185               	.LM22:
 186 00c4 89B7      		in r24,89-0x20
 187               	.LVL12:
 188 00c6 8F7E      		andi r24,lo8(-17)
 189 00c8 89BF      		out 89-0x20,r24
 190               	.LM23:
 191 00ca 0E94 0000 		call UART1_RX_flash
 192               	.LM24:
 193 00ce 812F      		mov r24,r17
 194 00d0 0E94 0000 		call User_erase
 195               	.LM25:
 196 00d4 99B7      		in r25,89-0x20
 197 00d6 9061      		ori r25,lo8(16)
 198 00d8 99BF      		out 89-0x20,r25
 199               	.LM26:
 200 00da 8823      		tst r24
 201 00dc 01F0      		breq .L24
 202               	.LM27:
 203 00de 81E0      		ldi r24,lo8(1)
 204 00e0 90E0      		ldi r25,hi8(1)
 205 00e2 00C0      		rjmp .L26
 206               	.L24:
 207               	.LM28:
 208 00e4 9598      		cbi 50-0x20,5
 209 00e6 80E5      		ldi r24,lo8(-15536)
 210 00e8 93EC      		ldi r25,hi8(-15536)
 211               	.LVL13:
 212               	.L27:
 213               	.LBB5:
 214               	.LM29:
 215               	/* #APP */
 216 00ea 0000      		nop
 217               		
 218 00ec 0000      		nop
 219               		
 220 00ee 0000      		nop
 221               		
 222 00f0 0000      		nop
 223               		
 224               	/* #NOAPP */
 225 00f2 0197      		sbiw r24,1
 226 00f4 01F4      		brne .L27
 227               	.LBE5:
 228               	.LM30:
 229 00f6 959A      		sbi 50-0x20,5
 230 00f8 80E5      		ldi r24,lo8(-15536)
 231 00fa 93EC      		ldi r25,hi8(-15536)
 232               	.LVL14:
 233               	.L29:
 234               	.LBB6:
 235               	.LM31:
 236               	/* #APP */
 237 00fc 0000      		nop
 238               		
 239 00fe 0000      		nop
 240               		
 241 0100 0000      		nop
 242               		
 243 0102 0000      		nop
 244               		
 245               	/* #NOAPP */
 246 0104 0197      		sbiw r24,1
 247 0106 01F4      		brne .L29
 248 0108 80E0      		ldi r24,lo8(0)
 249 010a 90E0      		ldi r25,hi8(0)
 250               	.LVL15:
 251               	.L26:
 252               	.LBE6:
 253               	/* epilogue: frame size=0 */
 254 010c 1F91      		pop r17
 255 010e 0895      		ret
 256               	/* epilogue end (size=2) */
 257               	/* function fingermap_erase_apl size 66 (63) */
 258               	.LFE14:
 260               	.global	User_auth
 262               	User_auth:
 263               	.LFB11:
 264               	.LM32:
 265               	/* prologue: frame size=18 */
 266 0110 CF93      		push r28
 267 0112 DF93      		push r29
 268 0114 CDB7      		in r28,__SP_L__
 269 0116 DEB7      		in r29,__SP_H__
 270 0118 6297      		sbiw r28,18
 271 011a 0FB6      		in __tmp_reg__,__SREG__
 272 011c F894      		cli
 273 011e DEBF      		out __SP_H__,r29
 274 0120 0FBE      		out __SREG__,__tmp_reg__
 275 0122 CDBF      		out __SP_L__,r28
 276               	/* prologue end (size=10) */
 277               	.LVL16:
 278               	.LM33:
 279 0124 22E0      		ldi r18,lo8(2)
 280 0126 2A87      		std Y+10,r18
 281               	.LM34:
 282 0128 94E0      		ldi r25,lo8(4)
 283 012a 9B87      		std Y+11,r25
 284               	.LM35:
 285 012c 31E0      		ldi r19,lo8(1)
 286 012e 3C87      		std Y+12,r19
 287               	.LM36:
 288 0130 2D87      		std Y+13,r18
 289               	.LM37:
 290 0132 94E2      		ldi r25,lo8(36)
 291 0134 9E87      		std Y+14,r25
 292               	.LM38:
 293 0136 8F87      		std Y+15,r24
 294               	.LM39:
 295 0138 288B      		std Y+16,r18
 296               	.LM40:
 297 013a 398B      		std Y+17,r19
 298               	.LM41:
 299 013c 83E0      		ldi r24,lo8(3)
 300               	.LVL17:
 301 013e 8A8B      		std Y+18,r24
 302               	.LM42:
 303 0140 69E0      		ldi r22,lo8(9)
 304 0142 70E0      		ldi r23,hi8(9)
 305 0144 CE01      		movw r24,r28
 306 0146 0A96      		adiw r24,10
 307 0148 0E94 0000 		call UART1_write
 308               	.LM43:
 309 014c 69E0      		ldi r22,lo8(9)
 310 014e 70E0      		ldi r23,hi8(9)
 311 0150 CE01      		movw r24,r28
 312 0152 0196      		adiw r24,1
 313 0154 0E94 0000 		call UART1_read
 314 0158 97FD      		sbrc r25,7
 315 015a 00C0      		rjmp .L37
 316               	.LM44:
 317 015c 8981      		ldd r24,Y+1
 318 015e 8230      		cpi r24,lo8(2)
 319 0160 01F0      		breq .+2
 320 0162 00C0      		rjmp .L39
 321 0164 8D81      		ldd r24,Y+5
 322 0166 8432      		cpi r24,lo8(36)
 323 0168 01F0      		breq .+2
 324 016a 00C0      		rjmp .L39
 325               	.LM45:
 326 016c 9E81      		ldd r25,Y+6
 327 016e 9F3F      		cpi r25,lo8(-1)
 328 0170 01F4      		brne .L42
 329 0172 21E0      		ldi r18,lo8(1)
 330               	.LVL18:
 331               	.LVL19:
 332               	.L44:
 333               	.LBB7:
 334               	.LM46:
 335 0174 8091 6200 		lds r24,98
 336               	.LVL20:
 337 0178 8860      		ori r24,lo8(8)
 338 017a 8093 6200 		sts 98,r24
 339 017e 80E5      		ldi r24,lo8(18000)
 340 0180 96E4      		ldi r25,hi8(18000)
 341               	.LVL21:
 342               	.L45:
 343               	.LBB8:
 344               	/* #APP */
 345 0182 0000      		nop
 346               		
 347 0184 0000      		nop
 348               		
 349 0186 0000      		nop
 350               		
 351 0188 0000      		nop
 352               		
 353               	/* #NOAPP */
 354 018a 0197      		sbiw r24,1
 355 018c 01F4      		brne .L45
 356               	.LBE8:
 357 018e 8091 6200 		lds r24,98
 358               	.LVL22:
 359 0192 877F      		andi r24,lo8(-9)
 360 0194 8093 6200 		sts 98,r24
 361 0198 80E5      		ldi r24,lo8(18000)
 362 019a 96E4      		ldi r25,hi8(18000)
 363               	.LVL23:
 364               	.L47:
 365               	.LBB9:
 366               	/* #APP */
 367 019c 0000      		nop
 368               		
 369 019e 0000      		nop
 370               		
 371 01a0 0000      		nop
 372               		
 373 01a2 0000      		nop
 374               		
 375               	/* #NOAPP */
 376 01a4 0197      		sbiw r24,1
 377 01a6 01F4      		brne .L47
 378               	.LBE9:
 379 01a8 2150      		subi r18,lo8(-(-1))
 380 01aa 01F4      		brne .+2
 381 01ac 00C0      		rjmp .L37
 382 01ae 00C0      		rjmp .L44
 383               	.LVL24:
 384               	.L42:
 385               	.LBE7:
 386               	.LM47:
 387 01b0 9C3F      		cpi r25,lo8(-4)
 388 01b2 01F4      		brne .L49
 389 01b4 23E0      		ldi r18,lo8(3)
 390               	.LVL25:
 391               	.LVL26:
 392               	.L51:
 393               	.LBB10:
 394               	.LM48:
 395 01b6 8091 6200 		lds r24,98
 396               	.LVL27:
 397 01ba 8860      		ori r24,lo8(8)
 398 01bc 8093 6200 		sts 98,r24
 399 01c0 80E5      		ldi r24,lo8(18000)
 400 01c2 96E4      		ldi r25,hi8(18000)
 401               	.LVL28:
 402               	.L52:
 403               	.LBB11:
 404               	/* #APP */
 405 01c4 0000      		nop
 406               		
 407 01c6 0000      		nop
 408               		
 409 01c8 0000      		nop
 410               		
 411 01ca 0000      		nop
 412               		
 413               	/* #NOAPP */
 414 01cc 0197      		sbiw r24,1
 415 01ce 01F4      		brne .L52
 416               	.LBE11:
 417 01d0 8091 6200 		lds r24,98
 418               	.LVL29:
 419 01d4 877F      		andi r24,lo8(-9)
 420 01d6 8093 6200 		sts 98,r24
 421 01da 80E5      		ldi r24,lo8(18000)
 422 01dc 96E4      		ldi r25,hi8(18000)
 423               	.LVL30:
 424               	.L54:
 425               	.LBB12:
 426               	/* #APP */
 427 01de 0000      		nop
 428               		
 429 01e0 0000      		nop
 430               		
 431 01e2 0000      		nop
 432               		
 433 01e4 0000      		nop
 434               		
 435               	/* #NOAPP */
 436 01e6 0197      		sbiw r24,1
 437 01e8 01F4      		brne .L54
 438               	.LBE12:
 439 01ea 2150      		subi r18,lo8(-(-1))
 440 01ec 01F4      		brne .+2
 441 01ee 00C0      		rjmp .L37
 442 01f0 00C0      		rjmp .L51
 443               	.LVL31:
 444               	.L49:
 445               	.LBE10:
 446               	.LM49:
 447 01f2 9E3F      		cpi r25,lo8(-2)
 448 01f4 01F4      		brne .L56
 449 01f6 22E0      		ldi r18,lo8(2)
 450               	.LVL32:
 451               	.LVL33:
 452               	.L58:
 453               	.LBB13:
 454               	.LM50:
 455 01f8 8091 6200 		lds r24,98
 456               	.LVL34:
 457 01fc 8860      		ori r24,lo8(8)
 458 01fe 8093 6200 		sts 98,r24
 459 0202 80E5      		ldi r24,lo8(18000)
 460 0204 96E4      		ldi r25,hi8(18000)
 461               	.LVL35:
 462               	.L59:
 463               	.LBB14:
 464               	/* #APP */
 465 0206 0000      		nop
 466               		
 467 0208 0000      		nop
 468               		
 469 020a 0000      		nop
 470               		
 471 020c 0000      		nop
 472               		
 473               	/* #NOAPP */
 474 020e 0197      		sbiw r24,1
 475 0210 01F4      		brne .L59
 476               	.LBE14:
 477 0212 8091 6200 		lds r24,98
 478               	.LVL36:
 479 0216 877F      		andi r24,lo8(-9)
 480 0218 8093 6200 		sts 98,r24
 481 021c 80E5      		ldi r24,lo8(18000)
 482 021e 96E4      		ldi r25,hi8(18000)
 483               	.LVL37:
 484               	.L61:
 485               	.LBB15:
 486               	/* #APP */
 487 0220 0000      		nop
 488               		
 489 0222 0000      		nop
 490               		
 491 0224 0000      		nop
 492               		
 493 0226 0000      		nop
 494               		
 495               	/* #NOAPP */
 496 0228 0197      		sbiw r24,1
 497 022a 01F4      		brne .L61
 498               	.LBE15:
 499 022c 2150      		subi r18,lo8(-(-1))
 500 022e 01F4      		brne .+2
 501 0230 00C0      		rjmp .L37
 502 0232 00C0      		rjmp .L58
 503               	.LVL38:
 504               	.L56:
 505               	.LBE13:
 506               	.LM51:
 507 0234 892F      		mov r24,r25
 508 0236 8150      		subi r24,lo8(-(-1))
 509 0238 803F      		cpi r24,lo8(-16)
 510 023a 00F4      		brsh .L63
 511               	.LM52:
 512 023c 8091 6200 		lds r24,98
 513 0240 8B7F      		andi r24,lo8(-5)
 514 0242 8093 6200 		sts 98,r24
 515               	.LM53:
 516 0246 1B98      		cbi 35-0x20,3
 517               	.LM54:
 518 0248 9698      		cbi 50-0x20,6
 519               	.LM55:
 520 024a 9093 0000 		sts fingermapid,r25
 521 024e 80E0      		ldi r24,lo8(0)
 522 0250 90E0      		ldi r25,hi8(0)
 523 0252 00C0      		rjmp .L65
 524               	.L63:
 525               	.LM56:
 526 0254 24E0      		ldi r18,lo8(4)
 527               	.LVL39:
 528               	.LVL40:
 529               	.L66:
 530               	.LBB16:
 531               	.LM57:
 532 0256 8091 6200 		lds r24,98
 533               	.LVL41:
 534 025a 8860      		ori r24,lo8(8)
 535 025c 8093 6200 		sts 98,r24
 536 0260 80E5      		ldi r24,lo8(18000)
 537 0262 96E4      		ldi r25,hi8(18000)
 538               	.LVL42:
 539               	.L67:
 540               	.LBB17:
 541               	/* #APP */
 542 0264 0000      		nop
 543               		
 544 0266 0000      		nop
 545               		
 546 0268 0000      		nop
 547               		
 548 026a 0000      		nop
 549               		
 550               	/* #NOAPP */
 551 026c 0197      		sbiw r24,1
 552 026e 01F4      		brne .L67
 553               	.LBE17:
 554 0270 8091 6200 		lds r24,98
 555               	.LVL43:
 556 0274 877F      		andi r24,lo8(-9)
 557 0276 8093 6200 		sts 98,r24
 558 027a 80E5      		ldi r24,lo8(18000)
 559 027c 96E4      		ldi r25,hi8(18000)
 560               	.LVL44:
 561               	.L69:
 562               	.LBB18:
 563               	/* #APP */
 564 027e 0000      		nop
 565               		
 566 0280 0000      		nop
 567               		
 568 0282 0000      		nop
 569               		
 570 0284 0000      		nop
 571               		
 572               	/* #NOAPP */
 573 0286 0197      		sbiw r24,1
 574 0288 01F4      		brne .L69
 575               	.LBE18:
 576 028a 2150      		subi r18,lo8(-(-1))
 577 028c 01F0      		breq .L37
 578 028e 00C0      		rjmp .L66
 579               	.LVL45:
 580               	.L39:
 581 0290 25E0      		ldi r18,lo8(5)
 582               	.LVL46:
 583               	.LVL47:
 584               	.L71:
 585               	.LBE16:
 586               	.LBB19:
 587               	.LM58:
 588 0292 8091 6200 		lds r24,98
 589               	.LVL48:
 590 0296 8860      		ori r24,lo8(8)
 591 0298 8093 6200 		sts 98,r24
 592 029c 80E5      		ldi r24,lo8(18000)
 593 029e 96E4      		ldi r25,hi8(18000)
 594               	.LVL49:
 595               	.L72:
 596               	.LBB20:
 597               	/* #APP */
 598 02a0 0000      		nop
 599               		
 600 02a2 0000      		nop
 601               		
 602 02a4 0000      		nop
 603               		
 604 02a6 0000      		nop
 605               		
 606               	/* #NOAPP */
 607 02a8 0197      		sbiw r24,1
 608 02aa 01F4      		brne .L72
 609               	.LBE20:
 610 02ac 8091 6200 		lds r24,98
 611               	.LVL50:
 612 02b0 877F      		andi r24,lo8(-9)
 613 02b2 8093 6200 		sts 98,r24
 614 02b6 80E5      		ldi r24,lo8(18000)
 615 02b8 96E4      		ldi r25,hi8(18000)
 616               	.LVL51:
 617               	.L74:
 618               	.LBB21:
 619               	/* #APP */
 620 02ba 0000      		nop
 621               		
 622 02bc 0000      		nop
 623               		
 624 02be 0000      		nop
 625               		
 626 02c0 0000      		nop
 627               		
 628               	/* #NOAPP */
 629 02c2 0197      		sbiw r24,1
 630 02c4 01F4      		brne .L74
 631               	.LBE21:
 632 02c6 2150      		subi r18,lo8(-(-1))
 633 02c8 01F4      		brne .L71
 634               	.LVL52:
 635               	.L37:
 636 02ca 81E0      		ldi r24,lo8(1)
 637 02cc 90E0      		ldi r25,hi8(1)
 638               	.LVL53:
 639               	.L65:
 640               	.LBE19:
 641               	/* epilogue: frame size=18 */
 642 02ce 6296      		adiw r28,18
 643 02d0 0FB6      		in __tmp_reg__,__SREG__
 644 02d2 F894      		cli
 645 02d4 DEBF      		out __SP_H__,r29
 646 02d6 0FBE      		out __SREG__,__tmp_reg__
 647 02d8 CDBF      		out __SP_L__,r28
 648 02da DF91      		pop r29
 649 02dc CF91      		pop r28
 650 02de 0895      		ret
 651               	/* epilogue end (size=9) */
 652               	/* function User_auth size 367 (348) */
 653               	.LFE11:
 655               	.global	fingermap_auth_apl
 657               	fingermap_auth_apl:
 658               	.LFB12:
 659               	.LM59:
 660               	/* prologue: frame size=0 */
 661 02e0 1F93      		push r17
 662               	/* prologue end (size=1) */
 663 02e2 10E0      		ldi r17,lo8(0)
 664               	.LVL54:
 665               	.L103:
 666               	.LM60:
 667 02e4 89B7      		in r24,89-0x20
 668 02e6 8F7E      		andi r24,lo8(-17)
 669 02e8 89BF      		out 89-0x20,r24
 670               	.LM61:
 671 02ea 0E94 0000 		call UART1_RX_flash
 672               	.LM62:
 673 02ee 8FEF      		ldi r24,lo8(-1)
 674 02f0 0E94 0000 		call User_auth
 675               	.LM63:
 676 02f4 99B7      		in r25,89-0x20
 677 02f6 9061      		ori r25,lo8(16)
 678 02f8 99BF      		out 89-0x20,r25
 679               	.LM64:
 680 02fa 8823      		tst r24
 681 02fc 01F4      		brne .L104
 682               	.LM65:
 683 02fe 9598      		cbi 50-0x20,5
 684 0300 80E5      		ldi r24,lo8(-15536)
 685 0302 93EC      		ldi r25,hi8(-15536)
 686               	.LVL55:
 687               	.L106:
 688               	.LBB22:
 689               	.LM66:
 690               	/* #APP */
 691 0304 0000      		nop
 692               		
 693 0306 0000      		nop
 694               		
 695 0308 0000      		nop
 696               		
 697 030a 0000      		nop
 698               		
 699               	/* #NOAPP */
 700 030c 0197      		sbiw r24,1
 701 030e 01F4      		brne .L106
 702               	.LBE22:
 703               	.LM67:
 704 0310 959A      		sbi 50-0x20,5
 705 0312 80E5      		ldi r24,lo8(-15536)
 706 0314 93EC      		ldi r25,hi8(-15536)
 707               	.LVL56:
 708               	.L108:
 709               	.LBB23:
 710               	.LM68:
 711               	/* #APP */
 712 0316 0000      		nop
 713               		
 714 0318 0000      		nop
 715               		
 716 031a 0000      		nop
 717               		
 718 031c 0000      		nop
 719               		
 720               	/* #NOAPP */
 721 031e 0197      		sbiw r24,1
 722 0320 01F4      		brne .L108
 723 0322 80E0      		ldi r24,lo8(0)
 724 0324 90E0      		ldi r25,hi8(0)
 725               	.LVL57:
 726 0326 00C0      		rjmp .L110
 727               	.L104:
 728               	.LBE23:
 729               	.LM69:
 730 0328 1F5F      		subi r17,lo8(-(1))
 731 032a 1330      		cpi r17,lo8(3)
 732 032c 01F4      		brne .L103
 733 032e 81E0      		ldi r24,lo8(1)
 734 0330 90E0      		ldi r25,hi8(1)
 735               	.L110:
 736               	/* epilogue: frame size=0 */
 737 0332 1F91      		pop r17
 738 0334 0895      		ret
 739               	/* epilogue end (size=2) */
 740               	/* function fingermap_auth_apl size 69 (66) */
 741               	.LFE12:
 743               	.global	User_enroll
 745               	User_enroll:
 746               	.LFB9:
 747               	.LM70:
 748               	/* prologue: frame size=20 */
 749 0336 CF93      		push r28
 750 0338 DF93      		push r29
 751 033a CDB7      		in r28,__SP_L__
 752 033c DEB7      		in r29,__SP_H__
 753 033e 6497      		sbiw r28,20
 754 0340 0FB6      		in __tmp_reg__,__SREG__
 755 0342 F894      		cli
 756 0344 DEBF      		out __SP_H__,r29
 757 0346 0FBE      		out __SREG__,__tmp_reg__
 758 0348 CDBF      		out __SP_L__,r28
 759               	/* prologue end (size=10) */
 760               	.LVL58:
 761               	.LM71:
 762 034a 22E0      		ldi r18,lo8(2)
 763 034c 2983      		std Y+1,r18
 764               	.LM72:
 765 034e 94E0      		ldi r25,lo8(4)
 766 0350 9A83      		std Y+2,r25
 767               	.LM73:
 768 0352 31E0      		ldi r19,lo8(1)
 769 0354 3B83      		std Y+3,r19
 770               	.LM74:
 771 0356 2C83      		std Y+4,r18
 772               	.LM75:
 773 0358 91E2      		ldi r25,lo8(33)
 774 035a 9D83      		std Y+5,r25
 775               	.LM76:
 776 035c 8E83      		std Y+6,r24
 777               	.LM77:
 778 035e 2F83      		std Y+7,r18
 779               	.LM78:
 780 0360 3887      		std Y+8,r19
 781               	.LM79:
 782 0362 83E0      		ldi r24,lo8(3)
 783               	.LVL59:
 784 0364 8987      		std Y+9,r24
 785               	.LM80:
 786 0366 8091 6200 		lds r24,98
 787 036a 8B7F      		andi r24,lo8(-5)
 788 036c 8093 6200 		sts 98,r24
 789               	.LM81:
 790 0370 69E0      		ldi r22,lo8(9)
 791 0372 70E0      		ldi r23,hi8(9)
 792 0374 CE01      		movw r24,r28
 793 0376 0196      		adiw r24,1
 794 0378 0E94 0000 		call UART1_write
 795               	.LM82:
 796 037c 6BE0      		ldi r22,lo8(11)
 797 037e 70E0      		ldi r23,hi8(11)
 798 0380 CE01      		movw r24,r28
 799 0382 0A96      		adiw r24,10
 800 0384 0E94 0000 		call UART1_read
 801               	.LM83:
 802 0388 8A85      		ldd r24,Y+10
 803 038a 8230      		cpi r24,lo8(2)
 804 038c 01F4      		brne .L120
 805               	.LM84:
 806 038e 8B85      		ldd r24,Y+11
 807 0390 8630      		cpi r24,lo8(6)
 808 0392 01F4      		brne .L120
 809 0394 8C85      		ldd r24,Y+12
 810 0396 8430      		cpi r24,lo8(4)
 811 0398 01F4      		brne .L120
 812 039a 8D85      		ldd r24,Y+13
 813 039c 8430      		cpi r24,lo8(4)
 814 039e 01F4      		brne .L120
 815 03a0 8E85      		ldd r24,Y+14
 816 03a2 8132      		cpi r24,lo8(33)
 817 03a4 01F4      		brne .L120
 818 03a6 8F85      		ldd r24,Y+15
 819 03a8 8130      		cpi r24,lo8(1)
 820 03aa 01F4      		brne .L120
 821 03ac 8889      		ldd r24,Y+16
 822 03ae 8230      		cpi r24,lo8(2)
 823 03b0 01F4      		brne .L120
 824 03b2 8989      		ldd r24,Y+17
 825 03b4 8F3F      		cpi r24,lo8(-1)
 826 03b6 01F4      		brne .L120
 827 03b8 8A89      		ldd r24,Y+18
 828 03ba 8230      		cpi r24,lo8(2)
 829 03bc 01F4      		brne .L120
 830 03be 8B89      		ldd r24,Y+19
 831 03c0 8130      		cpi r24,lo8(1)
 832 03c2 01F4      		brne .L120
 833 03c4 8C89      		ldd r24,Y+20
 834 03c6 8630      		cpi r24,lo8(6)
 835 03c8 01F0      		breq .L131
 836               	.L120:
 837 03ca 23E0      		ldi r18,lo8(3)
 838               	.LVL60:
 839               	.LVL61:
 840               	.L132:
 841               	.LBB24:
 842               	.LM85:
 843 03cc 8091 6200 		lds r24,98
 844               	.LVL62:
 845 03d0 8860      		ori r24,lo8(8)
 846 03d2 8093 6200 		sts 98,r24
 847 03d6 80E5      		ldi r24,lo8(18000)
 848 03d8 96E4      		ldi r25,hi8(18000)
 849               	.LVL63:
 850               	.L133:
 851               	.LBB25:
 852               	/* #APP */
 853 03da 0000      		nop
 854               		
 855 03dc 0000      		nop
 856               		
 857 03de 0000      		nop
 858               		
 859 03e0 0000      		nop
 860               		
 861               	/* #NOAPP */
 862 03e2 0197      		sbiw r24,1
 863 03e4 01F4      		brne .L133
 864               	.LBE25:
 865 03e6 8091 6200 		lds r24,98
 866               	.LVL64:
 867 03ea 877F      		andi r24,lo8(-9)
 868 03ec 8093 6200 		sts 98,r24
 869 03f0 80E5      		ldi r24,lo8(18000)
 870 03f2 96E4      		ldi r25,hi8(18000)
 871               	.LVL65:
 872               	.L135:
 873               	.LBB26:
 874               	/* #APP */
 875 03f4 0000      		nop
 876               		
 877 03f6 0000      		nop
 878               		
 879 03f8 0000      		nop
 880               		
 881 03fa 0000      		nop
 882               		
 883               	/* #NOAPP */
 884 03fc 0197      		sbiw r24,1
 885 03fe 01F4      		brne .L135
 886               	.LBE26:
 887 0400 2150      		subi r18,lo8(-(-1))
 888 0402 01F4      		brne .L132
 889 0404 00C0      		rjmp .L248
 890               	.LVL66:
 891               	.L131:
 892               	.LBE24:
 893               	.LM86:
 894 0406 21E0      		ldi r18,lo8(1)
 895               	.LVL67:
 896               	.LVL68:
 897               	.L139:
 898               	.LBB27:
 899               	.LM87:
 900 0408 8091 6200 		lds r24,98
 901               	.LVL69:
 902 040c 8860      		ori r24,lo8(8)
 903 040e 8093 6200 		sts 98,r24
 904 0412 80E5      		ldi r24,lo8(18000)
 905 0414 96E4      		ldi r25,hi8(18000)
 906               	.LVL70:
 907               	.L140:
 908               	.LBB28:
 909               	/* #APP */
 910 0416 0000      		nop
 911               		
 912 0418 0000      		nop
 913               		
 914 041a 0000      		nop
 915               		
 916 041c 0000      		nop
 917               		
 918               	/* #NOAPP */
 919 041e 0197      		sbiw r24,1
 920 0420 01F4      		brne .L140
 921               	.LBE28:
 922 0422 8091 6200 		lds r24,98
 923               	.LVL71:
 924 0426 877F      		andi r24,lo8(-9)
 925 0428 8093 6200 		sts 98,r24
 926 042c 80E5      		ldi r24,lo8(18000)
 927 042e 96E4      		ldi r25,hi8(18000)
 928               	.LVL72:
 929               	.L142:
 930               	.LBB29:
 931               	/* #APP */
 932 0430 0000      		nop
 933               		
 934 0432 0000      		nop
 935               		
 936 0434 0000      		nop
 937               		
 938 0436 0000      		nop
 939               		
 940               	/* #NOAPP */
 941 0438 0197      		sbiw r24,1
 942 043a 01F4      		brne .L142
 943               	.LBE29:
 944 043c 2150      		subi r18,lo8(-(-1))
 945 043e 01F4      		brne .L139
 946               	.LBE27:
 947               	.LM88:
 948 0440 1B98      		cbi 35-0x20,3
 949               	.LM89:
 950 0442 6BE0      		ldi r22,lo8(11)
 951 0444 70E0      		ldi r23,hi8(11)
 952 0446 CE01      		movw r24,r28
 953               	.LVL73:
 954 0448 0A96      		adiw r24,10
 955 044a 0E94 0000 		call UART1_read
 956               	.LVL74:
 957               	.LM90:
 958 044e 8A85      		ldd r24,Y+10
 959 0450 8230      		cpi r24,lo8(2)
 960 0452 01F4      		brne .L145
 961 0454 8B85      		ldd r24,Y+11
 962 0456 8630      		cpi r24,lo8(6)
 963 0458 01F4      		brne .L145
 964 045a 8C85      		ldd r24,Y+12
 965 045c 8430      		cpi r24,lo8(4)
 966 045e 01F4      		brne .L145
 967 0460 8D85      		ldd r24,Y+13
 968 0462 8430      		cpi r24,lo8(4)
 969 0464 01F4      		brne .L145
 970 0466 8E85      		ldd r24,Y+14
 971 0468 8132      		cpi r24,lo8(33)
 972 046a 01F4      		brne .L145
 973 046c 8F85      		ldd r24,Y+15
 974 046e 8230      		cpi r24,lo8(2)
 975 0470 01F4      		brne .L145
 976 0472 8889      		ldd r24,Y+16
 977 0474 8230      		cpi r24,lo8(2)
 978 0476 01F4      		brne .L145
 979 0478 8989      		ldd r24,Y+17
 980 047a 8F3F      		cpi r24,lo8(-1)
 981 047c 01F4      		brne .L145
 982 047e 8A89      		ldd r24,Y+18
 983 0480 8230      		cpi r24,lo8(2)
 984 0482 01F4      		brne .L145
 985 0484 8B89      		ldd r24,Y+19
 986 0486 8130      		cpi r24,lo8(1)
 987 0488 01F4      		brne .L145
 988 048a 8C89      		ldd r24,Y+20
 989 048c 8630      		cpi r24,lo8(6)
 990 048e 01F0      		breq .L156
 991               	.L145:
 992 0490 23E0      		ldi r18,lo8(3)
 993               	.LVL75:
 994               	.LVL76:
 995               	.L157:
 996               	.LBB30:
 997               	.LM91:
 998 0492 8091 6200 		lds r24,98
 999               	.LVL77:
 1000 0496 8860      		ori r24,lo8(8)
 1001 0498 8093 6200 		sts 98,r24
 1002 049c 80E5      		ldi r24,lo8(18000)
 1003 049e 96E4      		ldi r25,hi8(18000)
 1004               	.LVL78:
 1005               	.L158:
 1006               	.LBB31:
 1007               	/* #APP */
 1008 04a0 0000      		nop
 1009               		
 1010 04a2 0000      		nop
 1011               		
 1012 04a4 0000      		nop
 1013               		
 1014 04a6 0000      		nop
 1015               		
 1016               	/* #NOAPP */
 1017 04a8 0197      		sbiw r24,1
 1018 04aa 01F4      		brne .L158
 1019               	.LBE31:
 1020 04ac 8091 6200 		lds r24,98
 1021               	.LVL79:
 1022 04b0 877F      		andi r24,lo8(-9)
 1023 04b2 8093 6200 		sts 98,r24
 1024 04b6 80E5      		ldi r24,lo8(18000)
 1025 04b8 96E4      		ldi r25,hi8(18000)
 1026               	.LVL80:
 1027               	.L160:
 1028               	.LBB32:
 1029               	/* #APP */
 1030 04ba 0000      		nop
 1031               		
 1032 04bc 0000      		nop
 1033               		
 1034 04be 0000      		nop
 1035               		
 1036 04c0 0000      		nop
 1037               		
 1038               	/* #NOAPP */
 1039 04c2 0197      		sbiw r24,1
 1040 04c4 01F4      		brne .L160
 1041               	.LBE32:
 1042 04c6 2150      		subi r18,lo8(-(-1))
 1043 04c8 01F4      		brne .L157
 1044 04ca 00C0      		rjmp .L247
 1045               	.LVL81:
 1046               	.L156:
 1047               	.LBE30:
 1048               	.LM92:
 1049 04cc 22E0      		ldi r18,lo8(2)
 1050               	.LVL82:
 1051               	.LVL83:
 1052               	.L163:
 1053               	.LBB33:
 1054               	.LM93:
 1055 04ce 8091 6200 		lds r24,98
 1056               	.LVL84:
 1057 04d2 8860      		ori r24,lo8(8)
 1058 04d4 8093 6200 		sts 98,r24
 1059 04d8 80E5      		ldi r24,lo8(18000)
 1060 04da 96E4      		ldi r25,hi8(18000)
 1061               	.LVL85:
 1062               	.L164:
 1063               	.LBB34:
 1064               	/* #APP */
 1065 04dc 0000      		nop
 1066               		
 1067 04de 0000      		nop
 1068               		
 1069 04e0 0000      		nop
 1070               		
 1071 04e2 0000      		nop
 1072               		
 1073               	/* #NOAPP */
 1074 04e4 0197      		sbiw r24,1
 1075 04e6 01F4      		brne .L164
 1076               	.LBE34:
 1077 04e8 8091 6200 		lds r24,98
 1078               	.LVL86:
 1079 04ec 877F      		andi r24,lo8(-9)
 1080 04ee 8093 6200 		sts 98,r24
 1081 04f2 80E5      		ldi r24,lo8(18000)
 1082 04f4 96E4      		ldi r25,hi8(18000)
 1083               	.LVL87:
 1084               	.L166:
 1085               	.LBB35:
 1086               	/* #APP */
 1087 04f6 0000      		nop
 1088               		
 1089 04f8 0000      		nop
 1090               		
 1091 04fa 0000      		nop
 1092               		
 1093 04fc 0000      		nop
 1094               		
 1095               	/* #NOAPP */
 1096 04fe 0197      		sbiw r24,1
 1097 0500 01F4      		brne .L166
 1098               	.LBE35:
 1099 0502 2150      		subi r18,lo8(-(-1))
 1100 0504 01F4      		brne .L163
 1101               	.LBE33:
 1102               	.LM94:
 1103 0506 9698      		cbi 50-0x20,6
 1104               	.LM95:
 1105 0508 6BE0      		ldi r22,lo8(11)
 1106 050a 70E0      		ldi r23,hi8(11)
 1107 050c CE01      		movw r24,r28
 1108               	.LVL88:
 1109 050e 0A96      		adiw r24,10
 1110 0510 0E94 0000 		call UART1_read
 1111               	.LVL89:
 1112               	.LM96:
 1113 0514 8A85      		ldd r24,Y+10
 1114 0516 8230      		cpi r24,lo8(2)
 1115 0518 01F4      		brne .L169
 1116 051a 8B85      		ldd r24,Y+11
 1117 051c 8630      		cpi r24,lo8(6)
 1118 051e 01F4      		brne .L169
 1119 0520 8C85      		ldd r24,Y+12
 1120 0522 8430      		cpi r24,lo8(4)
 1121 0524 01F4      		brne .L169
 1122 0526 8D85      		ldd r24,Y+13
 1123 0528 8430      		cpi r24,lo8(4)
 1124 052a 01F4      		brne .L169
 1125 052c 8E85      		ldd r24,Y+14
 1126 052e 8132      		cpi r24,lo8(33)
 1127 0530 01F4      		brne .L169
 1128 0532 8F85      		ldd r24,Y+15
 1129 0534 8330      		cpi r24,lo8(3)
 1130 0536 01F4      		brne .L169
 1131 0538 8889      		ldd r24,Y+16
 1132 053a 8130      		cpi r24,lo8(1)
 1133 053c 01F4      		brne .L169
 1134 053e 8A89      		ldd r24,Y+18
 1135 0540 8230      		cpi r24,lo8(2)
 1136 0542 01F4      		brne .L169
 1137 0544 8B89      		ldd r24,Y+19
 1138 0546 8130      		cpi r24,lo8(1)
 1139 0548 01F4      		brne .L169
 1140 054a 8C89      		ldd r24,Y+20
 1141 054c 8630      		cpi r24,lo8(6)
 1142 054e 01F4      		brne .+2
 1143 0550 00C0      		rjmp .L179
 1144               	.L169:
 1145 0552 23E0      		ldi r18,lo8(3)
 1146               	.LVL90:
 1147               	.LVL91:
 1148               	.L180:
 1149               	.LBB36:
 1150               	.LM97:
 1151 0554 8091 6200 		lds r24,98
 1152               	.LVL92:
 1153 0558 8860      		ori r24,lo8(8)
 1154 055a 8093 6200 		sts 98,r24
 1155 055e 80E5      		ldi r24,lo8(18000)
 1156 0560 96E4      		ldi r25,hi8(18000)
 1157               	.LVL93:
 1158               	.L181:
 1159               	.LBB37:
 1160               	/* #APP */
 1161 0562 0000      		nop
 1162               		
 1163 0564 0000      		nop
 1164               		
 1165 0566 0000      		nop
 1166               		
 1167 0568 0000      		nop
 1168               		
 1169               	/* #NOAPP */
 1170 056a 0197      		sbiw r24,1
 1171 056c 01F4      		brne .L181
 1172               	.LBE37:
 1173 056e 8091 6200 		lds r24,98
 1174               	.LVL94:
 1175 0572 877F      		andi r24,lo8(-9)
 1176 0574 8093 6200 		sts 98,r24
 1177 0578 80E5      		ldi r24,lo8(18000)
 1178 057a 96E4      		ldi r25,hi8(18000)
 1179               	.LVL95:
 1180               	.L183:
 1181               	.LBB38:
 1182               	/* #APP */
 1183 057c 0000      		nop
 1184               		
 1185 057e 0000      		nop
 1186               		
 1187 0580 0000      		nop
 1188               		
 1189 0582 0000      		nop
 1190               		
 1191               	/* #NOAPP */
 1192 0584 0197      		sbiw r24,1
 1193 0586 01F4      		brne .L183
 1194               	.LBE38:
 1195 0588 2150      		subi r18,lo8(-(-1))
 1196 058a 01F4      		brne .L180
 1197               	.LBE36:
 1198               	.LM98:
 1199 058c 969A      		sbi 50-0x20,6
 1200               	.LVL96:
 1201               	.L247:
 1202               	.LM99:
 1203 058e 1B9A      		sbi 35-0x20,3
 1204               	.LVL97:
 1205               	.L248:
 1206               	.LM100:
 1207 0590 8091 6200 		lds r24,98
 1208               	.LVL98:
 1209 0594 8460      		ori r24,lo8(4)
 1210 0596 8093 6200 		sts 98,r24
 1211               	.LM101:
 1212 059a 8FEF      		ldi r24,lo8(-1)
 1213 059c 0E94 0000 		call User_enroll
 1214               	.LVL99:
 1215 05a0 00C0      		rjmp .L200
 1216               	.L179:
 1217               	.LM102:
 1218 05a2 9598      		cbi 50-0x20,5
 1219 05a4 21E0      		ldi r18,lo8(1)
 1220               	.LVL100:
 1221               	.LVL101:
 1222               	.L186:
 1223               	.LBB39:
 1224               	.LM103:
 1225 05a6 8091 6200 		lds r24,98
 1226               	.LVL102:
 1227 05aa 8860      		ori r24,lo8(8)
 1228 05ac 8093 6200 		sts 98,r24
 1229 05b0 80E6      		ldi r24,lo8(-5536)
 1230 05b2 9AEE      		ldi r25,hi8(-5536)
 1231               	.LVL103:
 1232               	.L187:
 1233               	.LBB40:
 1234               	/* #APP */
 1235 05b4 0000      		nop
 1236               		
 1237 05b6 0000      		nop
 1238               		
 1239 05b8 0000      		nop
 1240               		
 1241 05ba 0000      		nop
 1242               		
 1243               	/* #NOAPP */
 1244 05bc 0197      		sbiw r24,1
 1245 05be 01F4      		brne .L187
 1246               	.LBE40:
 1247 05c0 8091 6200 		lds r24,98
 1248               	.LVL104:
 1249 05c4 877F      		andi r24,lo8(-9)
 1250 05c6 8093 6200 		sts 98,r24
 1251 05ca 80E6      		ldi r24,lo8(-5536)
 1252 05cc 9AEE      		ldi r25,hi8(-5536)
 1253               	.LVL105:
 1254               	.L189:
 1255               	.LBB41:
 1256               	/* #APP */
 1257 05ce 0000      		nop
 1258               		
 1259 05d0 0000      		nop
 1260               		
 1261 05d2 0000      		nop
 1262               		
 1263 05d4 0000      		nop
 1264               		
 1265               	/* #NOAPP */
 1266 05d6 0197      		sbiw r24,1
 1267 05d8 01F4      		brne .L189
 1268               	.LBE41:
 1269 05da 2150      		subi r18,lo8(-(-1))
 1270 05dc 01F4      		brne .L186
 1271 05de 22E0      		ldi r18,lo8(2)
 1272               	.LVL106:
 1273               	.LVL107:
 1274               	.L192:
 1275               	.LBE39:
 1276               	.LBB42:
 1277 05e0 8091 6200 		lds r24,98
 1278               	.LVL108:
 1279 05e4 8860      		ori r24,lo8(8)
 1280 05e6 8093 6200 		sts 98,r24
 1281 05ea 88EA      		ldi r24,lo8(25000)
 1282 05ec 91E6      		ldi r25,hi8(25000)
 1283               	.LVL109:
 1284               	.L193:
 1285               	.LBB43:
 1286               	/* #APP */
 1287 05ee 0000      		nop
 1288               		
 1289 05f0 0000      		nop
 1290               		
 1291 05f2 0000      		nop
 1292               		
 1293 05f4 0000      		nop
 1294               		
 1295               	/* #NOAPP */
 1296 05f6 0197      		sbiw r24,1
 1297 05f8 01F4      		brne .L193
 1298               	.LBE43:
 1299 05fa 8091 6200 		lds r24,98
 1300               	.LVL110:
 1301 05fe 877F      		andi r24,lo8(-9)
 1302 0600 8093 6200 		sts 98,r24
 1303 0604 88EA      		ldi r24,lo8(25000)
 1304 0606 91E6      		ldi r25,hi8(25000)
 1305               	.LVL111:
 1306               	.L195:
 1307               	.LBB44:
 1308               	/* #APP */
 1309 0608 0000      		nop
 1310               		
 1311 060a 0000      		nop
 1312               		
 1313 060c 0000      		nop
 1314               		
 1315 060e 0000      		nop
 1316               		
 1317               	/* #NOAPP */
 1318 0610 0197      		sbiw r24,1
 1319 0612 01F4      		brne .L195
 1320               	.LBE44:
 1321 0614 2150      		subi r18,lo8(-(-1))
 1322 0616 01F4      		brne .L192
 1323 0618 80E5      		ldi r24,lo8(-15536)
 1324 061a 93EC      		ldi r25,hi8(-15536)
 1325               	.LVL112:
 1326               	.L198:
 1327               	.LBE42:
 1328               	.LBB45:
 1329               	.LM104:
 1330               	/* #APP */
 1331 061c 0000      		nop
 1332               		
 1333 061e 0000      		nop
 1334               		
 1335 0620 0000      		nop
 1336               		
 1337 0622 0000      		nop
 1338               		
 1339               	/* #NOAPP */
 1340 0624 0197      		sbiw r24,1
 1341 0626 01F4      		brne .L198
 1342               	.LBE45:
 1343               	.LM105:
 1344 0628 8989      		ldd r24,Y+17
 1345               	.LVL113:
 1346 062a 8093 0000 		sts fingermapid,r24
 1347               	.LM106:
 1348 062e 959A      		sbi 50-0x20,5
 1349               	.LM107:
 1350 0630 969A      		sbi 50-0x20,6
 1351               	.LM108:
 1352 0632 1B9A      		sbi 35-0x20,3
 1353               	.LM109:
 1354 0634 8091 6200 		lds r24,98
 1355 0638 8460      		ori r24,lo8(4)
 1356 063a 8093 6200 		sts 98,r24
 1357               	.LM110:
 1358 063e 80E0      		ldi r24,lo8(0)
 1359 0640 90E0      		ldi r25,hi8(0)
 1360               	.L200:
 1361               	/* epilogue: frame size=20 */
 1362 0642 6496      		adiw r28,20
 1363 0644 0FB6      		in __tmp_reg__,__SREG__
 1364 0646 F894      		cli
 1365 0648 DEBF      		out __SP_H__,r29
 1366 064a 0FBE      		out __SREG__,__tmp_reg__
 1367 064c CDBF      		out __SP_L__,r28
 1368 064e DF91      		pop r29
 1369 0650 CF91      		pop r28
 1370 0652 0895      		ret
 1371               	/* epilogue end (size=9) */
 1372               	/* function User_enroll size 601 (582) */
 1373               	.LFE9:
 1375               	.global	fingermap_enroll_apl
 1377               	fingermap_enroll_apl:
 1378               	.LFB10:
 1379               	.LM111:
 1380               	/* prologue: frame size=0 */
 1381               	/* prologue end (size=0) */
 1382               	.L250:
 1383               	.LM112:
 1384 0654 89B7      		in r24,89-0x20
 1385 0656 8F7E      		andi r24,lo8(-17)
 1386 0658 89BF      		out 89-0x20,r24
 1387               	.LM113:
 1388 065a 0E94 0000 		call UART1_RX_flash
 1389               	.LM114:
 1390 065e 8FEF      		ldi r24,lo8(-1)
 1391 0660 0E94 0000 		call User_enroll
 1392               	.LM115:
 1393 0664 99B7      		in r25,89-0x20
 1394 0666 9061      		ori r25,lo8(16)
 1395 0668 99BF      		out 89-0x20,r25
 1396               	.LM116:
 1397 066a 8823      		tst r24
 1398 066c 01F4      		brne .L250
 1399               	.LM117:
 1400 066e 9598      		cbi 50-0x20,5
 1401 0670 80E5      		ldi r24,lo8(-15536)
 1402 0672 93EC      		ldi r25,hi8(-15536)
 1403               	.LVL114:
 1404               	.L252:
 1405               	.LBB46:
 1406               	.LM118:
 1407               	/* #APP */
 1408 0674 0000      		nop
 1409               		
 1410 0676 0000      		nop
 1411               		
 1412 0678 0000      		nop
 1413               		
 1414 067a 0000      		nop
 1415               		
 1416               	/* #NOAPP */
 1417 067c 0197      		sbiw r24,1
 1418 067e 01F4      		brne .L252
 1419               	.LBE46:
 1420               	.LM119:
 1421 0680 959A      		sbi 50-0x20,5
 1422 0682 80E5      		ldi r24,lo8(-15536)
 1423 0684 93EC      		ldi r25,hi8(-15536)
 1424               	.LVL115:
 1425               	.L254:
 1426               	.LBB47:
 1427               	.LM120:
 1428               	/* #APP */
 1429 0686 0000      		nop
 1430               		
 1431 0688 0000      		nop
 1432               		
 1433 068a 0000      		nop
 1434               		
 1435 068c 0000      		nop
 1436               		
 1437               	/* #NOAPP */
 1438 068e 0197      		sbiw r24,1
 1439 0690 01F4      		brne .L254
 1440               	.LBE47:
 1441               	.LM121:
 1442 0692 80E0      		ldi r24,lo8(0)
 1443 0694 90E0      		ldi r25,hi8(0)
 1444               	.LVL116:
 1445               	/* epilogue: frame size=0 */
 1446 0696 0895      		ret
 1447               	/* epilogue end (size=1) */
 1448               	/* function fingermap_enroll_apl size 60 (59) */
 1449               	.LFE10:
 1515               	.Letext0:
DEFINED SYMBOLS
                            *ABS*:00000000 fingermap.c
C:\DOCUME~1\jszx\LOCALS~1\Temp/ccDbfjpG.s:3      *ABS*:0000003f __SREG__
C:\DOCUME~1\jszx\LOCALS~1\Temp/ccDbfjpG.s:4      *ABS*:0000003e __SP_H__
C:\DOCUME~1\jszx\LOCALS~1\Temp/ccDbfjpG.s:5      *ABS*:0000003d __SP_L__
C:\DOCUME~1\jszx\LOCALS~1\Temp/ccDbfjpG.s:6      *ABS*:00000000 __tmp_reg__
C:\DOCUME~1\jszx\LOCALS~1\Temp/ccDbfjpG.s:7      *ABS*:00000001 __zero_reg__
C:\DOCUME~1\jszx\LOCALS~1\Temp/ccDbfjpG.s:20     .text:00000000 User_erase
C:\DOCUME~1\jszx\LOCALS~1\Temp/ccDbfjpG.s:177    .text:000000c0 fingermap_erase_apl
C:\DOCUME~1\jszx\LOCALS~1\Temp/ccDbfjpG.s:262    .text:00000110 User_auth
C:\DOCUME~1\jszx\LOCALS~1\Temp/ccDbfjpG.s:657    .text:000002e0 fingermap_auth_apl
C:\DOCUME~1\jszx\LOCALS~1\Temp/ccDbfjpG.s:745    .text:00000336 User_enroll
C:\DOCUME~1\jszx\LOCALS~1\Temp/ccDbfjpG.s:1377   .text:00000654 fingermap_enroll_apl

UNDEFINED SYMBOLS
__do_copy_data
__do_clear_bss
UART1_write
UART1_read
UART1_RX_flash
fingermapid
